###############################################################################
#                                                                             #
# IAR C/C++ Compiler V8.10.3.10338/W32 for 8051         05/Apr/2017  00:01:37 #
# Copyright 2004-2011 IAR Systems AB.                                         #
#                                                                             #
#    Core               =  plain                                              #
#    Code model         =  banked                                             #
#    Data model         =  large                                              #
#    Calling convention =  xdata reentrant                                    #
#    Constant location  =  data_rom                                           #
#    Dptr setup         =  1,16                                               #
#    Source file        =  C:\Texas Instruments\ZStack-CC2530-2.5.1a\Projects #
#                          \zstack\Samples\SwitchTestApp\Source\SwitchTestApp #
#                          Router.c                                           #
#    Command line       =  -f "C:\Texas Instruments\ZStack-CC2530-2.5.1a\Proj #
#                          ects\zstack\Samples\SwitchTestApp\CC2530DB\..\..\. #
#                          .\Tools\CC2530DB\f8wRouter.cfg" (-DCPU32MHZ        #
#                          -DROOT=__near_func -DMAC_CFG_APP_PENDING_QUEUE=TRU #
#                          E -DMAC_CFG_TX_DATA_MAX=5 -DMAC_CFG_TX_MAX=8       #
#                          -DMAC_CFG_RX_MAX=5 -DRTR_NWK) -f "C:\Texas         #
#                          Instruments\ZStack-CC2530-2.5.1a\Projects\zstack\S #
#                          amples\SwitchTestApp\CC2530DB\..\..\..\Tools\CC253 #
#                          0DB\f8wConfig.cfg" (-DZIGBEEPRO -DSECURE=0         #
#                          -DZG_SECURE_DYNAMIC=0 -DREFLECTOR                  #
#                          -DDEFAULT_CHANLIST=0x00000800                      #
#                          -DZDAPP_CONFIG_PAN_ID=0xFFFF                       #
#                          -DNWK_START_DELAY=100 -DEXTENDED_JOINING_RANDOM_MA #
#                          SK=0x007F -DBEACON_REQUEST_DELAY=100               #
#                          -DBEACON_REQ_DELAY_MASK=0x00FF                     #
#                          -DLINK_STATUS_JITTER_MASK=0x007F                   #
#                          -DROUTE_EXPIRY_TIME=30 -DAPSC_ACK_WAIT_DURATION_PO #
#                          LLED=3000 -DNWK_INDIRECT_MSG_TIMEOUT=7             #
#                          -DMAX_RREQ_ENTRIES=8 -DAPSC_MAX_FRAME_RETRIES=3    #
#                          -DNWK_MAX_DATA_RETRIES=2                           #
#                          -DMAX_POLL_FAILURE_RETRIES=2 -DMAX_BCAST=9         #
#                          -DAPS_MAX_GROUPS=16 -DMAX_RTG_ENTRIES=40           #
#                          -DNWK_MAX_BINDING_ENTRIES=4                        #
#                          -DMAX_BINDING_CLUSTER_IDS=4 "-DDEFAULT_KEY={0x01,  #
#                          0x03, 0x05, 0x07, 0x09, 0x0B, 0x0D, 0x0F, 0x00,    #
#                          0x02, 0x04, 0x06, 0x08, 0x0A, 0x0C, 0x0D}"         #
#                          -DMAC_MAX_FRAME_SIZE=116                           #
#                          -DZDNWKMGR_MIN_TRANSMISSIONS=20 "-DCONST=const     #
#                          __code" -DGENERIC=__generic                        #
#                          -DRFD_RCVC_ALWAYS_ON=FALSE -DPOLL_RATE=1000        #
#                          -DQUEUED_POLL_RATE=100 -DRESPONSE_POLL_RATE=100)   #
#                          -DREJOIN_POLL_RATE=440 "C:\Texas                   #
#                          Instruments\ZStack-CC2530-2.5.1a\Projects\zstack\S #
#                          amples\SwitchTestApp\Source\SwitchTestAppRouter.c" #
#                           -D ZTOOL_P1 -D MT_TASK -D MT_SYS_FUNC -D          #
#                          MT_ZDO_FUNC -D LCD_SUPPORTED=DEBUG -lC "C:\Texas   #
#                          Instruments\ZStack-CC2530-2.5.1a\Projects\zstack\S #
#                          amples\SwitchTestApp\CC2530DB\RouterEB\List\" -lA  #
#                          "C:\Texas Instruments\ZStack-CC2530-2.5.1a\Project #
#                          s\zstack\Samples\SwitchTestApp\CC2530DB\RouterEB\L #
#                          ist\" --diag_suppress Pe001,Pa010 -o "C:\Texas     #
#                          Instruments\ZStack-CC2530-2.5.1a\Projects\zstack\S #
#                          amples\SwitchTestApp\CC2530DB\RouterEB\Obj\" -e    #
#                          --no_code_motion --debug --core=plain --dptr=16,1  #
#                          --data_model=large --code_model=banked             #
#                          --calling_convention=xdata_reentrant               #
#                          --place_constants=data_rom --nr_virtual_regs 16    #
#                          -I "C:\Texas Instruments\ZStack-CC2530-2.5.1a\Proj #
#                          ects\zstack\Samples\SwitchTestApp\CC2530DB\" -I    #
#                          "C:\Texas Instruments\ZStack-CC2530-2.5.1a\Project #
#                          s\zstack\Samples\SwitchTestApp\CC2530DB\..\Source\ #
#                          " -I "C:\Texas Instruments\ZStack-CC2530-2.5.1a\Pr #
#                          ojects\zstack\Samples\SwitchTestApp\CC2530DB\..\.. #
#                          \..\ZMain\TI2530DB\" -I "C:\Texas                  #
#                          Instruments\ZStack-CC2530-2.5.1a\Projects\zstack\S #
#                          amples\SwitchTestApp\CC2530DB\..\..\..\..\..\Compo #
#                          nents\hal\include\" -I "C:\Texas                   #
#                          Instruments\ZStack-CC2530-2.5.1a\Projects\zstack\S #
#                          amples\SwitchTestApp\CC2530DB\..\..\..\..\..\Compo #
#                          nents\hal\target\CC2530EB\" -I "C:\Texas           #
#                          Instruments\ZStack-CC2530-2.5.1a\Projects\zstack\S #
#                          amples\SwitchTestApp\CC2530DB\..\..\..\..\..\Compo #
#                          nents\mac\include\" -I "C:\Texas                   #
#                          Instruments\ZStack-CC2530-2.5.1a\Projects\zstack\S #
#                          amples\SwitchTestApp\CC2530DB\..\..\..\..\..\Compo #
#                          nents\mac\high_level\" -I "C:\Texas                #
#                          Instruments\ZStack-CC2530-2.5.1a\Projects\zstack\S #
#                          amples\SwitchTestApp\CC2530DB\..\..\..\..\..\Compo #
#                          nents\mac\low_level\srf04\" -I "C:\Texas           #
#                          Instruments\ZStack-CC2530-2.5.1a\Projects\zstack\S #
#                          amples\SwitchTestApp\CC2530DB\..\..\..\..\..\Compo #
#                          nents\mac\low_level\srf04\single_chip\" -I         #
#                          "C:\Texas Instruments\ZStack-CC2530-2.5.1a\Project #
#                          s\zstack\Samples\SwitchTestApp\CC2530DB\..\..\..\. #
#                          .\..\Components\mt\" -I "C:\Texas                  #
#                          Instruments\ZStack-CC2530-2.5.1a\Projects\zstack\S #
#                          amples\SwitchTestApp\CC2530DB\..\..\..\..\..\Compo #
#                          nents\osal\include\" -I "C:\Texas                  #
#                          Instruments\ZStack-CC2530-2.5.1a\Projects\zstack\S #
#                          amples\SwitchTestApp\CC2530DB\..\..\..\..\..\Compo #
#                          nents\services\saddr\" -I "C:\Texas                #
#                          Instruments\ZStack-CC2530-2.5.1a\Projects\zstack\S #
#                          amples\SwitchTestApp\CC2530DB\..\..\..\..\..\Compo #
#                          nents\services\sdata\" -I "C:\Texas                #
#                          Instruments\ZStack-CC2530-2.5.1a\Projects\zstack\S #
#                          amples\SwitchTestApp\CC2530DB\..\..\..\..\..\Compo #
#                          nents\stack\af\" -I "C:\Texas                      #
#                          Instruments\ZStack-CC2530-2.5.1a\Projects\zstack\S #
#                          amples\SwitchTestApp\CC2530DB\..\..\..\..\..\Compo #
#                          nents\stack\nwk\" -I "C:\Texas                     #
#                          Instruments\ZStack-CC2530-2.5.1a\Projects\zstack\S #
#                          amples\SwitchTestApp\CC2530DB\..\..\..\..\..\Compo #
#                          nents\stack\sapi\" -I "C:\Texas                    #
#                          Instruments\ZStack-CC2530-2.5.1a\Projects\zstack\S #
#                          amples\SwitchTestApp\CC2530DB\..\..\..\..\..\Compo #
#                          nents\stack\sec\" -I "C:\Texas                     #
#                          Instruments\ZStack-CC2530-2.5.1a\Projects\zstack\S #
#                          amples\SwitchTestApp\CC2530DB\..\..\..\..\..\Compo #
#                          nents\stack\sys\" -I "C:\Texas                     #
#                          Instruments\ZStack-CC2530-2.5.1a\Projects\zstack\S #
#                          amples\SwitchTestApp\CC2530DB\..\..\..\..\..\Compo #
#                          nents\stack\zdo\" -I "C:\Texas                     #
#                          Instruments\ZStack-CC2530-2.5.1a\Projects\zstack\S #
#                          amples\SwitchTestApp\CC2530DB\..\..\..\..\..\Compo #
#                          nents\zmac\" -I "C:\Texas                          #
#                          Instruments\ZStack-CC2530-2.5.1a\Projects\zstack\S #
#                          amples\SwitchTestApp\CC2530DB\..\..\..\..\..\Compo #
#                          nents\zmac\f8w\" -Ohz --require_prototypes         #
#    List file          =  C:\Texas Instruments\ZStack-CC2530-2.5.1a\Projects #
#                          \zstack\Samples\SwitchTestApp\CC2530DB\RouterEB\Li #
#                          st\SwitchTestAppRouter.lst                         #
#    Object file        =  C:\Texas Instruments\ZStack-CC2530-2.5.1a\Projects #
#                          \zstack\Samples\SwitchTestApp\CC2530DB\RouterEB\Ob #
#                          j\SwitchTestAppRouter.r51                          #
#                                                                             #
#                                                                             #
###############################################################################

C:\Texas Instruments\ZStack-CC2530-2.5.1a\Projects\zstack\Samples\SwitchTestApp\Source\SwitchTestAppRouter.c
      1          /******************************************************************************
      2            Filename:       SwitchTestApp.c
      3            Revised:        $Date: 2012-03-07 01:04:58 -0800 (Wed, 07 Mar 2012) $
      4            Revision:       $Revision: 29656 $
      5          
      6            Description:    Generic Application (no Profile).
      7          
      8          
      9            Copyright 2004-2012 Texas Instruments Incorporated. All rights reserved.
     10          
     11            IMPORTANT: Your use of this Software is limited to those specific rights
     12            granted under the terms of a software license agreement between the user
     13            who downloaded the software, his/her employer (which must be your employer)
     14            and Texas Instruments Incorporated (the "License"). You may not use this
     15            Software unless you agree to abide by the terms of the License. The License
     16            limits your use, and you acknowledge, that the Software may not be modified,
     17            copied or distributed unless embedded on a Texas Instruments microcontroller
     18            or used solely and exclusively in conjunction with a Texas Instruments radio
     19            frequency transceiver, which is integrated into your product. Other than for
     20            the foregoing purpose, you may not use, reproduce, copy, prepare derivative
     21            works of, modify, distribute, perform, display or sell this Software and/or
     22            its documentation for any purpose.
     23          
     24            YOU FURTHER ACKNOWLEDGE AND AGREE THAT THE SOFTWARE AND DOCUMENTATION ARE
     25            PROVIDED AS IS?WITHOUT WARRANTY OF ANY KIND, EITHER EXPRESS OR IMPLIED,
     26            INCLUDING WITHOUT LIMITATION, ANY WARRANTY OF MERCHANTABILITY, TITLE,
     27            NON-INFRINGEMENT AND FITNESS FOR A PARTICULAR PURPOSE. IN NO EVENT SHALL
     28            TEXAS INSTRUMENTS OR ITS LICENSORS BE LIABLE OR OBLIGATED UNDER CONTRACT,
     29            NEGLIGENCE, STRICT LIABILITY, CONTRIBUTION, BREACH OF WARRANTY, OR OTHER
     30            LEGAL EQUITABLE THEORY ANY DIRECT OR INDIRECT DAMAGES OR EXPENSES
     31            INCLUDING BUT NOT LIMITED TO ANY INCIDENTAL, SPECIAL, INDIRECT, PUNITIVE
     32            OR CONSEQUENTIAL DAMAGES, LOST PROFITS OR LOST DATA, COST OF PROCUREMENT
     33            OF SUBSTITUTE GOODS, TECHNOLOGY, SERVICES, OR ANY CLAIMS BY THIRD PARTIES
     34            (INCLUDING BUT NOT LIMITED TO ANY DEFENSE THEREOF), OR OTHER SIMILAR COSTS.
     35          
     36            Should you have any questions regarding your right to use this Software,
     37            contact Texas Instruments Incorporated at www.TI.com.
     38          ******************************************************************************/
     39          
     40          /*********************************************************************
     41            This application isn't intended to do anything useful, it is
     42            intended to be a simple example of an application's structure.
     43          
     44            This application sends "Hello World" to another "Generic"
     45            application every 5 seconds.  The application will also
     46            receives "Hello World" packets.
     47          
     48            The "Hello World" messages are sent/received as MSG type message.
     49          
     50            This applications doesn't have a profile, so it handles everything
     51            directly - itself.
     52          
     53            Key control:
     54              SW1:
     55              SW2:  initiates end device binding
     56              SW3:
     57              SW4:  initiates a match description request
     58          *********************************************************************/
     59          
     60          /*********************************************************************
     61           * INCLUDES
     62           */
     63          #include "OSAL.h"
     64          #include "AF.h"
     65          #include "ZDApp.h"
     66          #include "ZDObject.h"
     67          #include "ZDProfile.h"
     68          
     69          #include "SwitchTestAppRouter.h"
     70          #include "DebugTrace.h"
     71          
     72          #if !defined( WIN32 )
     73            #include "OnBoard.h"

   \                                 In  segment SFR_AN, at 0x90
   \   union <unnamed> volatile __sfr _A_P1
   \                     _A_P1:
   \   000000                DS 1

   \                                 In  segment SFR_AN, at 0xfe
   \   unsigned char volatile __sfr P1DIR
   \                     P1DIR:
   \   000000                DS 1
     74          #endif
     75          
     76          /* HAL */
     77          #include "hal_lcd.h"
     78          #include "hal_led.h"
     79          #include "hal_key.h"
     80          #include "hal_uart.h"
     81          
     82          /* RTOS */
     83          #if defined( IAR_ARMCM3_LM )
     84          #include "RTOS_App.h"
     85          #endif  
     86          
     87          /*********************************************************************
     88           * MACROS
     89           */
     90          #define   OPENLED1      P1_2=0
     91          #define   OPENLED2      P1_3=0
     92          
     93          #define   CLOSLED1      P1_2=1
     94          #define   CLOSLED2      P1_3=1
     95          
     96          #define   Led1Open      0x10
     97          #define   Led1Clos      0x11
     98          
     99          #define   Led2Open      0x20
    100          #define   Led2Clos      0x21
    101          /*********************************************************************
    102           * CONSTANTS
    103           */
    104          
    105          //无线数据收发 
    106          #define AF_TXRX_DATA_LEN  16  //&&开头 >>end 10 字符
    107          

   \                                 In  segment XDATA_Z, align 1, keep-with-next
    108          static uint8 CodRecv_AFBuf[AF_TXRX_DATA_LEN];
   \                     CodRecv_AFBuf:
   \   000000                DS 16
   \   000010                REQUIRE __INIT_XDATA_Z

   \                                 In  segment XDATA_Z, align 1, keep-with-next
    109          static uint8 CodSend_AFBuf[AF_TXRX_DATA_LEN];
   \                     CodSend_AFBuf:
   \   000000                DS 16
   \   000010                REQUIRE __INIT_XDATA_Z
    110          
    111          

   \                                 In  segment XDATA_Z, align 1, keep-with-next
    112          static uint8 SerialApp_RxBuf[SERIAL_APP_RSP_CNT];
   \                     SerialApp_RxBuf:
   \   000000                DS 254
   \   0000FE                REQUIRE __INIT_XDATA_Z
    113          
    114          /*********************************************************************
    115           * TYPEDEFS
    116           */
    117          
    118          /*********************************************************************
    119           * GLOBAL VARIABLES
    120           */
    121          // This list should be filled with Application specific Cluster IDs.

   \                                 In  segment XDATA_ROM_C, align 1
    122          const cId_t SwitchTestApp_ClusterList[SwitchTestApp_MAX_CLUSTERS] =
   \                     SwitchTestApp_ClusterList:
   \   000000   0100         DW 1
    123          {
    124            SwitchTestApp_CLUSTERID
    125          };
    126          

   \                                 In  segment XDATA_ROM_C, align 1
    127          const SimpleDescriptionFormat_t SwitchTestApp_SimpleDesc =
   \                     SwitchTestApp_SimpleDesc:
   \   000000   0A           DB 10
   \   000001   040F         DW 3844
   \   000003   0100         DW 1
   \   000005   00           DB 0
   \   000006   01           DB 1
   \   000007   ....         DW SwitchTestApp_ClusterList
   \   000009   01           DB 1
   \   00000A   ....         DW SwitchTestApp_ClusterList
    128          {
    129            SwitchTestApp_ENDPOINT,              //  int Endpoint;
    130            SwitchTestApp_PROFID,                //  uint16 AppProfId[2];
    131            SwitchTestApp_DEVICEID,              //  uint16 AppDeviceId[2];
    132            SwitchTestApp_DEVICE_VERSION,        //  int   AppDevVer:4;
    133            SwitchTestApp_FLAGS,                 //  int   AppFlags:4;
    134            SwitchTestApp_MAX_CLUSTERS,          //  byte  AppNumInClusters;
    135            (cId_t *)SwitchTestApp_ClusterList,  //  byte *pAppInClusterList;
    136            SwitchTestApp_MAX_CLUSTERS,          //  byte  AppNumInClusters;
    137            (cId_t *)SwitchTestApp_ClusterList   //  byte *pAppInClusterList;
    138          };
    139          
    140          // This is the Endpoint/Interface description.  It is defined here, but
    141          // filled-in in SwitchTestApp_Init().  Another way to go would be to fill
    142          // in the structure here and make it a "const" (in code space).  The
    143          // way it's defined in this sample app it is define in RAM.

   \                                 In  segment XDATA_Z, align 1, keep-with-next
    144          endPointDesc_t SwitchTestApp_epDesc;
   \                     SwitchTestApp_epDesc:
   \   000000                DS 6
   \   000006                REQUIRE __INIT_XDATA_Z
    145          
    146          /*********************************************************************
    147           * EXTERNAL VARIABLES
    148           */
    149          
    150          /*********************************************************************
    151           * EXTERNAL FUNCTIONS
    152           */
    153          
    154          /*********************************************************************
    155           * LOCAL VARIABLES
    156           */

   \                                 In  segment XDATA_Z, align 1, keep-with-next
    157          byte SwitchTestApp_TaskID;   // Task ID for internal task/event processing
   \                     SwitchTestApp_TaskID:
   \   000000                DS 1
   \   000001                REQUIRE __INIT_XDATA_Z
    158                                    // This variable will be received when
    159                                    // SwitchTestApp_Init() is called.

   \                                 In  segment XDATA_Z, align 1, keep-with-next
    160          devStates_t SwitchTestApp_NwkState;
   \                     SwitchTestApp_NwkState:
   \   000000                DS 1
   \   000001                REQUIRE __INIT_XDATA_Z
    161          
    162          

   \                                 In  segment XDATA_Z, align 1, keep-with-next
    163          byte SwitchTestApp_TransID;  // This is the unique message ID (counter)
   \                     SwitchTestApp_TransID:
   \   000000                DS 1
   \   000001                REQUIRE __INIT_XDATA_Z
    164          

   \                                 In  segment XDATA_Z, align 1, keep-with-next
    165          afAddrType_t SwitchTestApp_DstAddr;
   \                     SwitchTestApp_DstAddr:
   \   000000                DS 12
   \   00000C                REQUIRE __INIT_XDATA_Z
    166          
    167          /*********************************************************************
    168           * LOCAL FUNCTIONS
    169           */
    170          void Init_Port(void);
    171          static void SwitchTestApp_ProcessZDOMsgs( zdoIncomingMsg_t *inMsg );
    172          static void SwitchTestApp_HandleKeys( byte shift, byte keys );
    173          static void SwitchTestApp_MessageMSGCB( afIncomingMSGPacket_t *pckt );
    174          static void SwitchTestApp_SendTheMessage( void );
    175          static void SwitchTestApp_SendROUMsg( void );
    176          static void SerialApp_CallBack(uint8 port, uint8 event);
    177          
    178          #if defined( IAR_ARMCM3_LM )
    179          static void SwitchTestApp_ProcessRtosMessage( void );
    180          #endif
    181          
    182          /*********************************************************************
    183           * NETWORK LAYER CALLBACKS
    184           */
    185          
    186          /*********************************************************************
    187           * PUBLIC FUNCTIONS
    188           */

   \                                 In  segment BANKED_CODE, align 1, keep-with-next
    189          void Init_Port(void)
   \                     Init_Port:
    190          {
   \   000000                ; Saved register size: 0
   \   000000                ; Auto size: 0
    191            P1DIR|=(0x01<<2);
   \   000000   43FE04       ORL     0xfe,#0x4
    192            P1DIR|=(0x01<<3);
   \   000003   43FE08       ORL     0xfe,#0x8
    193            CLOSLED1;
   \   000006   D292         SETB    0x90.2
    194            CLOSLED2;
   \   000008   D293         SETB    0x90.3
    195          }
   \   00000A   02....       LJMP    ?BRET
   \   00000D                REQUIRE P1DIR
   \   00000D                REQUIRE _A_P1
    196          
    197          /*********************************************************************
    198           * @fn      SwitchTestApp_Init
    199           *
    200           * @brief   Initialization function for the Generic App Task.
    201           *          This is called during initialization and should contain
    202           *          any application specific initialization (ie. hardware
    203           *          initialization/setup, table initialization, power up
    204           *          notificaiton ... ).
    205           *
    206           * @param   task_id - the ID assigned by OSAL.  This ID should be
    207           *                    used to send messages and set timers.
    208           *
    209           * @return  none
    210           */

   \                                 In  segment BANKED_CODE, align 1, keep-with-next
    211          void SwitchTestApp_Init( uint8 task_id )
   \                     SwitchTestApp_Init:
    212          {
   \   000000   74F7         MOV     A,#-0x9
   \   000002   12....       LCALL   ?BANKED_ENTER_XDATA
   \   000005                ; Saved register size: 9
   \   000005                ; Auto size: 29
   \   000005   74E3         MOV     A,#-0x1d
   \   000007   12....       LCALL   ?ALLOC_XSTACK8
   \   00000A   E9           MOV     A,R1
    213            halUARTCfg_t uartConfig;
    214            
    215            SwitchTestApp_TaskID = task_id;
   \   00000B   90....       MOV     DPTR,#SwitchTestApp_TaskID
   \   00000E   F0           MOVX    @DPTR,A
    216            SwitchTestApp_NwkState = DEV_INIT;
   \   00000F   90....       MOV     DPTR,#SwitchTestApp_NwkState
   \   000012   7401         MOV     A,#0x1
   \   000014   F0           MOVX    @DPTR,A
    217            SwitchTestApp_TransID = 0;
   \   000015   90....       MOV     DPTR,#SwitchTestApp_TransID
   \   000018   E4           CLR     A
   \   000019   F0           MOVX    @DPTR,A
    218          
    219            // Device hardware initialization can be added here or in main() (Zmain.c).
    220            // If the hardware is application specific - add it here.
    221            // If the hardware is other parts of the device add it in main().
    222          
    223            SwitchTestApp_DstAddr.addrMode = (afAddrMode_t)AddrNotPresent;
   \   00001A   90....       MOV     DPTR,#SwitchTestApp_DstAddr + 8
   \   00001D   F0           MOVX    @DPTR,A
    224            SwitchTestApp_DstAddr.endPoint = 0;
   \   00001E   A3           INC     DPTR
   \   00001F   F0           MOVX    @DPTR,A
    225            SwitchTestApp_DstAddr.addr.shortAddr = 0;
   \   000020   90....       MOV     DPTR,#SwitchTestApp_DstAddr
   \   000023   F0           MOVX    @DPTR,A
   \   000024   A3           INC     DPTR
   \   000025   F0           MOVX    @DPTR,A
    226          
    227            // Fill out the endpoint description.
    228            SwitchTestApp_epDesc.endPoint = SwitchTestApp_ENDPOINT;
   \   000026   90....       MOV     DPTR,#SwitchTestApp_epDesc
   \   000029   740A         MOV     A,#0xa
   \   00002B   F0           MOVX    @DPTR,A
    229            SwitchTestApp_epDesc.task_id = &SwitchTestApp_TaskID;
   \   00002C   A3           INC     DPTR
   \   00002D   74..         MOV     A,#SwitchTestApp_TaskID & 0xff
   \   00002F   F0           MOVX    @DPTR,A
   \   000030   A3           INC     DPTR
   \   000031   74..         MOV     A,#(SwitchTestApp_TaskID >> 8) & 0xff
   \   000033   F0           MOVX    @DPTR,A
    230            SwitchTestApp_epDesc.simpleDesc
    231                      = (SimpleDescriptionFormat_t *)&SwitchTestApp_SimpleDesc;
   \   000034   A3           INC     DPTR
   \   000035   74..         MOV     A,#SwitchTestApp_SimpleDesc & 0xff
   \   000037   F0           MOVX    @DPTR,A
   \   000038   A3           INC     DPTR
   \   000039   74..         MOV     A,#(SwitchTestApp_SimpleDesc >> 8) & 0xff
   \   00003B   F0           MOVX    @DPTR,A
    232            SwitchTestApp_epDesc.latencyReq = noLatencyReqs;
   \   00003C   A3           INC     DPTR
   \   00003D   E4           CLR     A
   \   00003E   F0           MOVX    @DPTR,A
    233          
    234            // Register the endpoint description with the AF
    235            afRegister( &SwitchTestApp_epDesc );
   \   00003F                ; Setup parameters for call to function afRegister
   \   00003F   7A..         MOV     R2,#SwitchTestApp_epDesc & 0xff
   \   000041   7B..         MOV     R3,#(SwitchTestApp_epDesc >> 8) & 0xff
   \   000043   12....       LCALL   ??afRegister?relay
    236          
    237            // Register for all key events - This app will handle all key events
    238            RegisterForKeys( SwitchTestApp_TaskID );
   \   000046                ; Setup parameters for call to function RegisterForKeys
   \   000046   90....       MOV     DPTR,#SwitchTestApp_TaskID
   \   000049   E0           MOVX    A,@DPTR
   \   00004A   F9           MOV     R1,A
   \   00004B   12....       LCALL   ??RegisterForKeys?relay
    239            
    240             //uart 0 init
    241            uartConfig.configured           = TRUE;              // 2x30 don't care - see uart driver.
   \   00004E   85..82       MOV     DPL,?XSP + 0
   \   000051   85..83       MOV     DPH,?XSP + 1
   \   000054   7401         MOV     A,#0x1
   \   000056   F0           MOVX    @DPTR,A
    242            uartConfig.baudRate             = HAL_UART_BR_9600;
   \   000057   12....       LCALL   ?XSTACK_DISP0_8
   \   00005A   E4           CLR     A
   \   00005B   F0           MOVX    @DPTR,A
    243            uartConfig.flowControl          = FALSE;
   \   00005C   7402         MOV     A,#0x2
   \   00005E   12....       LCALL   ?XSTACK_DISP0_8
   \   000061   E4           CLR     A
   \   000062   F0           MOVX    @DPTR,A
    244            //uartConfig.flowControlThreshold = SERIAL_APP_THRESH; // 2x30 don't care - see uart driver.
    245            uartConfig.rx.maxBufSize        = 256;  // 2x30 don't care - see uart driver.
   \   000063   740A         MOV     A,#0xa
   \   000065   12....       LCALL   ?XSTACK_DISP0_8
   \   000068   E4           CLR     A
   \   000069   F0           MOVX    @DPTR,A
   \   00006A   A3           INC     DPTR
   \   00006B   04           INC     A
   \   00006C   F0           MOVX    @DPTR,A
    246            uartConfig.tx.maxBufSize        = 256;  // 2x30 don't care - see uart driver.
   \   00006D   7412         MOV     A,#0x12
   \   00006F   12....       LCALL   ?XSTACK_DISP0_8
   \   000072   E4           CLR     A
   \   000073   F0           MOVX    @DPTR,A
   \   000074   A3           INC     DPTR
   \   000075   04           INC     A
   \   000076   F0           MOVX    @DPTR,A
    247            uartConfig.idleTimeout          = 100;   // 2x30 don't care - see uart driver.
   \   000077   7405         MOV     A,#0x5
   \   000079   12....       LCALL   ?XSTACK_DISP0_8
   \   00007C   7464         MOV     A,#0x64
   \   00007E   F0           MOVX    @DPTR,A
    248            //uartConfig.intEnable            = TRUE;              // 2x30 don't care - see uart driver.
    249            uartConfig.callBackFunc         = SerialApp_CallBack;
   \   00007F   741B         MOV     A,#0x1b
   \   000081   12....       LCALL   ?XSTACK_DISP0_8
   \   000084   74..         MOV     A,#??SerialApp_CallBack?relay & 0xff
   \   000086   F0           MOVX    @DPTR,A
   \   000087   A3           INC     DPTR
   \   000088   74..         MOV     A,#(??SerialApp_CallBack?relay >> 8) & 0xff
   \   00008A   12....       LCALL   ?Subroutine1 & 0xFFFF
    250            HalUARTOpen (HAL_UART_PORT_0, &uartConfig);
   \                     ??CrossCallReturnLabel_0:
   \   00008D   AA82         MOV     R2,DPL
   \   00008F   AB83         MOV     R3,DPH
   \   000091   7900         MOV     R1,#0x0
   \   000093   12....       LCALL   ??HalUARTOpen?relay
    251            
    252            Init_Port();
   \   000096                ; Setup parameters for call to function Init_Port
   \   000096   12....       LCALL   ??Init_Port?relay
    253            
    254            // Update the display
    255          #if defined ( LCD_SUPPORTED )
    256            HalLcdWriteString( "SwitchTestApp", HAL_LCD_LINE_1 );
   \   000099                ; Setup parameters for call to function HalLcdWriteString
   \   000099   7901         MOV     R1,#0x1
   \   00009B   7A..         MOV     R2,#`?<Constant "SwitchTestApp">` & 0xff
   \   00009D   7B..         MOV     R3,#(`?<Constant "SwitchTestApp">` >> 8) & 0xff
   \   00009F   12....       LCALL   ??HalLcdWriteString?relay
    257          #endif
    258          
    259            ZDO_RegisterForZDOMsg( SwitchTestApp_TaskID, End_Device_Bind_rsp );
   \   0000A2                ; Setup parameters for call to function ZDO_RegisterForZDOMsg
   \   0000A2   7A20         MOV     R2,#0x20
   \   0000A4   7B80         MOV     R3,#-0x80
   \   0000A6   90....       MOV     DPTR,#SwitchTestApp_TaskID
   \   0000A9   E0           MOVX    A,@DPTR
   \   0000AA   F9           MOV     R1,A
   \   0000AB   12....       LCALL   ??ZDO_RegisterForZDOMsg?relay
    260            ZDO_RegisterForZDOMsg( SwitchTestApp_TaskID, Match_Desc_rsp );
   \   0000AE                ; Setup parameters for call to function ZDO_RegisterForZDOMsg
   \   0000AE   7A06         MOV     R2,#0x6
   \   0000B0   7B80         MOV     R3,#-0x80
   \   0000B2   90....       MOV     DPTR,#SwitchTestApp_TaskID
   \   0000B5   E0           MOVX    A,@DPTR
   \   0000B6   F9           MOV     R1,A
   \   0000B7   12....       LCALL   ??ZDO_RegisterForZDOMsg?relay
    261          
    262          #if defined( IAR_ARMCM3_LM )
    263            // Register this task with RTOS task initiator
    264            RTOS_RegisterApp( task_id, SwitchTestApp_RTOS_MSG_EVT );
    265          #endif
    266          }
   \   0000BA   741D         MOV     A,#0x1d
   \   0000BC   12....       LCALL   ?DEALLOC_XSTACK8
   \   0000BF   7F01         MOV     R7,#0x1
   \   0000C1   02....       LJMP    ?BANKED_LEAVE_XDATA

   \                                 In  segment BANKED_CODE, align 1, keep-with-next
   \                     ?Subroutine1:
   \   000000   F0           MOVX    @DPTR,A
   \   000001                ; Setup parameters for call to function HalUARTOpen
   \   000001   85..82       MOV     DPL,?XSP + 0
   \   000004   85..83       MOV     DPH,?XSP + 1
   \   000007   22           RET
    267          
    268          /*********************************************************************
    269           * @fn      SwitchTestApp_ProcessEvent
    270           *
    271           * @brief   Generic Application Task event processor.  This function
    272           *          is called to process all events for the task.  Events
    273           *          include timers, messages and any other user defined events.
    274           *
    275           * @param   task_id  - The OSAL assigned task ID.
    276           * @param   events - events to process.  This is a bit map and can
    277           *                   contain more than one event.
    278           *
    279           * @return  none
    280           */

   \                                 In  segment BANKED_CODE, align 1, keep-with-next
    281          uint16 SwitchTestApp_ProcessEvent( uint8 task_id, uint16 events )
   \                     SwitchTestApp_ProcessEvent:
    282          {
   \   000000   74F1         MOV     A,#-0xf
   \   000002   12....       LCALL   ?BANKED_ENTER_XDATA
   \   000005                ; Saved register size: 15
   \   000005                ; Auto size: 21
   \   000005   74EB         MOV     A,#-0x15
   \   000007   12....       LCALL   ?ALLOC_XSTACK8
   \   00000A   EA           MOV     A,R2
   \   00000B   FE           MOV     R6,A
   \   00000C   EB           MOV     A,R3
   \   00000D   FF           MOV     R7,A
    283            afIncomingMSGPacket_t *MSGpkt;
    284            afDataConfirm_t *afDataConfirm;
    285          
    286            // Data Confirmation message fields
    287            byte sentEP;
    288            ZStatus_t sentStatus;
    289            byte sentTransID;       // This should match the value sent
    290            (void)task_id;  // Intentionally unreferenced parameter
    291          
    292            if ( events & SYS_EVENT_MSG )
   \   00000E   5480         ANL     A,#0x80
   \   000010   7003         JNZ     $+5
   \   000012   02....       LJMP    ??SwitchTestApp_ProcessEvent_0 & 0xFFFF
    293            {
    294              MSGpkt = (afIncomingMSGPacket_t *)osal_msg_receive( SwitchTestApp_TaskID );
   \   000015                ; Setup parameters for call to function osal_msg_receive
   \   000015   02....       LJMP    ??SwitchTestApp_ProcessEvent_1 & 0xFFFF
    295              while ( MSGpkt )
    296              {
    297                switch ( MSGpkt->hdr.event )
    298                {
    299                  case ZDO_CB_MSG:
    300                    SwitchTestApp_ProcessZDOMsgs( (zdoIncomingMsg_t *)MSGpkt );
    301                    break;
    302          
    303                  case KEY_CHANGE:
    304                    SwitchTestApp_HandleKeys( ((keyChange_t *)MSGpkt)->state, ((keyChange_t *)MSGpkt)->keys );
    305                    break;
    306          
    307                  case AF_DATA_CONFIRM_CMD:
    308                    // This message is received as a confirmation of a data packet sent.
    309                    // The status is of ZStatus_t type [defined in ZComDef.h]
    310                    // The message fields are defined in AF.h
    311                    afDataConfirm = (afDataConfirm_t *)MSGpkt;
    312                    sentEP = afDataConfirm->endpoint;
    313                    sentStatus = afDataConfirm->hdr.status;
    314                    sentTransID = afDataConfirm->transID;
    315                    (void)sentEP;
    316                    (void)sentTransID;
    317          
    318                    // Action taken when confirmation is received.
    319                    if ( sentStatus != ZSuccess )
    320                    {
    321                      // The data wasn't delivered -- Do something
    322                    }
    323                    break;
    324          
    325                  case AF_INCOMING_MSG_CMD:
    326                    SwitchTestApp_MessageMSGCB( MSGpkt );
    327                    break;
    328          
    329                  case ZDO_STATE_CHANGE:
    330                    SwitchTestApp_NwkState = (devStates_t)(MSGpkt->hdr.status);
   \                     ??SwitchTestApp_ProcessEvent_2:
   \   000018   A3           INC     DPTR
   \   000019   E0           MOVX    A,@DPTR
   \   00001A   90....       MOV     DPTR,#SwitchTestApp_NwkState
   \   00001D   F0           MOVX    @DPTR,A
    331                    if ( (SwitchTestApp_NwkState == DEV_ZB_COORD)
    332                        || (SwitchTestApp_NwkState == DEV_ROUTER)
    333                        || (SwitchTestApp_NwkState == DEV_END_DEVICE) )
   \   00001E   6409         XRL     A,#0x9
   \   000020   600D         JZ      ??SwitchTestApp_ProcessEvent_3
   \   000022   E0           MOVX    A,@DPTR
   \   000023   6407         XRL     A,#0x7
   \   000025   6008         JZ      ??SwitchTestApp_ProcessEvent_3
   \   000027   E0           MOVX    A,@DPTR
   \   000028   6406         XRL     A,#0x6
   \   00002A   6003         JZ      $+5
   \   00002C   02....       LJMP    ??SwitchTestApp_ProcessEvent_4 & 0xFFFF
    334                    {
    335                      // Start sending "the" message in a regular interval.
    336                      osal_start_timerEx( SwitchTestApp_TaskID,
    337                                          SwitchTestApp_SEND_MSG_EVT,
    338                                          SwitchTestApp_SEND_MSG_TIMEOUT );
   \                     ??SwitchTestApp_ProcessEvent_3:
   \   00002F                ; Setup parameters for call to function osal_start_timerEx
   \   00002F   7C88         MOV     R4,#-0x78
   \   000031   7D13         MOV     R5,#0x13
   \   000033   7A01         MOV     R2,#0x1
   \   000035   7B00         MOV     R3,#0x0
   \   000037   90....       MOV     DPTR,#SwitchTestApp_TaskID
   \   00003A   E0           MOVX    A,@DPTR
   \   00003B   F9           MOV     R1,A
   \   00003C   12....       LCALL   ??osal_start_timerEx?relay
    339                      if(SwitchTestApp_NwkState == DEV_ROUTER)
   \   00003F   90....       MOV     DPTR,#SwitchTestApp_NwkState
   \   000042   E0           MOVX    A,@DPTR
   \   000043   6407         XRL     A,#0x7
   \   000045   6003         JZ      $+5
   \   000047   02....       LJMP    ??SwitchTestApp_ProcessEvent_4 & 0xFFFF
    340                      {
    341                          HalUARTWrite(0,">>Router LINK State <<",osal_strlen(">>Router LINK State "));
   \   00004A                ; Setup parameters for call to function HalUARTWrite
   \   00004A                ; Setup parameters for call to function osal_strlen
   \   00004A   7A..         MOV     R2,#`?<Constant ">>Router LINK State ">` & 0xff
   \   00004C   7B..         MOV     R3,#(`?<Constant ">>Router LINK State ">` >> 8) & 0xff
   \   00004E   12....       LCALL   ?Subroutine7 & 0xFFFF
   \                     ??CrossCallReturnLabel_11:
   \   000051   7A..         MOV     R2,#`?<Constant ">>Router LINK State <<">` & 0xff
   \   000053   7B..         MOV     R3,#(`?<Constant ">>Router LINK State <<">` >> 8) & 0xff
   \   000055   7900         MOV     R1,#0x0
   \   000057   12....       LCALL   ??HalUARTWrite?relay
    342                          SwitchTestApp_SendROUMsg();
   \   00005A   7411         MOV     A,#0x11
   \   00005C   12....       LCALL   ?XSTACK_DISP0_8
   \   00005F   7402         MOV     A,#0x2
   \   000061   F0           MOVX    @DPTR,A
   \   000062   7412         MOV     A,#0x12
   \   000064   12....       LCALL   ?XSTACK_DISP0_8
   \   000067   740A         MOV     A,#0xa
   \   000069   F0           MOVX    @DPTR,A
   \   00006A   14           DEC     A
   \   00006B   12....       LCALL   ?XSTACK_DISP0_8
   \   00006E   E4           CLR     A
   \   00006F   F0           MOVX    @DPTR,A
   \   000070   A3           INC     DPTR
   \   000071   F0           MOVX    @DPTR,A
   \   000072                ; Setup parameters for call to function osal_memset
   \   000072   7C10         MOV     R4,#0x10
   \   000074   FD           MOV     R5,A
   \   000075   F9           MOV     R1,A
   \   000076   7A..         MOV     R2,#CodSend_AFBuf & 0xff
   \   000078   7B..         MOV     R3,#(CodSend_AFBuf >> 8) & 0xff
   \   00007A   12....       LCALL   ??osal_memset?relay
   \   00007D                ; Setup parameters for call to function osal_memcpy
   \   00007D   75....       MOV     ?V0 + 4,#`?<Constant "&&ROUTER_LINK<<">` & 0xff
   \   000080   75....       MOV     ?V0 + 5,#(`?<Constant "&&ROUTER_LINK<<">` >> 8) & 0xff
   \   000083   75..00       MOV     ?V0 + 6,#0x0
   \   000086   78..         MOV     R0,#?V0 + 4
   \   000088   12....       LCALL   ?PUSH_XSTACK_I_THREE
   \   00008B   7C10         MOV     R4,#0x10
   \   00008D   7D00         MOV     R5,#0x0
   \   00008F   7A..         MOV     R2,#CodSend_AFBuf & 0xff
   \   000091   7B..         MOV     R3,#(CodSend_AFBuf >> 8) & 0xff
   \   000093   12....       LCALL   ??osal_memcpy?relay
   \   000096   7403         MOV     A,#0x3
   \   000098   12....       LCALL   ?DEALLOC_XSTACK8
   \   00009B                ; Setup parameters for call to function AF_DataRequest
   \   00009B   75..1E       MOV     ?V0 + 2,#0x1e
   \   00009E   78..         MOV     R0,#?V0 + 2
   \   0000A0   12....       LCALL   ?PUSH_XSTACK_I_ONE
   \   0000A3   75....       MOV     ?V0 + 2,#SwitchTestApp_TransID & 0xff
   \   0000A6   75....       MOV     ?V0 + 3,#(SwitchTestApp_TransID >> 8) & 0xff
   \   0000A9   78..         MOV     R0,#?V0 + 2
   \   0000AB   12....       LCALL   ?PUSH_XSTACK_I_TWO
   \   0000AE   75....       MOV     ?V0 + 2,#CodSend_AFBuf & 0xff
   \   0000B1   75....       MOV     ?V0 + 3,#(CodSend_AFBuf >> 8) & 0xff
   \   0000B4   78..         MOV     R0,#?V0 + 2
   \   0000B6   12....       LCALL   ?PUSH_XSTACK_I_TWO
   \   0000B9                ; Setup parameters for call to function osal_strlen
   \   0000B9   7A..         MOV     R2,#CodSend_AFBuf & 0xff
   \   0000BB   7B..         MOV     R3,#(CodSend_AFBuf >> 8) & 0xff
   \   0000BD   12....       LCALL   ??osal_strlen?relay
   \   0000C0   EA           MOV     A,R2
   \   0000C1   2401         ADD     A,#0x1
   \   0000C3   F5..         MOV     ?V0 + 2,A
   \   0000C5   E4           CLR     A
   \   0000C6   3400         ADDC    A,#0x0
   \   0000C8   F5..         MOV     ?V0 + 3,A
   \   0000CA   78..         MOV     R0,#?V0 + 2
   \   0000CC   12....       LCALL   ?PUSH_XSTACK_I_TWO
   \   0000CF   75..01       MOV     ?V0 + 2,#0x1
   \   0000D2   75..00       MOV     ?V0 + 3,#0x0
   \   0000D5   78..         MOV     R0,#?V0 + 2
   \   0000D7   12....       LCALL   ?PUSH_XSTACK_I_TWO
   \   0000DA   7920         MOV     R1,#0x20
   \   0000DC   7C..         MOV     R4,#SwitchTestApp_epDesc & 0xff
   \   0000DE   7D..         MOV     R5,#(SwitchTestApp_epDesc >> 8) & 0xff
   \   0000E0   7412         MOV     A,#0x12
   \   0000E2   12....       LCALL   ?XSTACK_DISP0_8
   \   0000E5   AA82         MOV     R2,DPL
   \   0000E7   AB83         MOV     R3,DPH
   \   0000E9   12....       LCALL   ??AF_DataRequest?relay
   \   0000EC   7409         MOV     A,#0x9
   \   0000EE   12....       LCALL   ?DEALLOC_XSTACK8
    343                      }
    344                    }
    345                    break;
    346          
    347                  default:
    348                    break;
    349                }
    350          
    351                // Release the memory
    352                osal_msg_deallocate( (uint8 *)MSGpkt );
   \                     ??SwitchTestApp_ProcessEvent_4:
   \   0000F1                ; Setup parameters for call to function osal_msg_deallocate
   \   0000F1   AA..         MOV     R2,?V0 + 0
   \   0000F3   AB..         MOV     R3,?V0 + 1
   \   0000F5   12....       LCALL   ??osal_msg_deallocate?relay
    353          
    354                // Next
    355                MSGpkt = (afIncomingMSGPacket_t *)osal_msg_receive( SwitchTestApp_TaskID );
   \   0000F8                ; Setup parameters for call to function osal_msg_receive
   \                     ??SwitchTestApp_ProcessEvent_1:
   \   0000F8   90....       MOV     DPTR,#SwitchTestApp_TaskID
   \   0000FB   E0           MOVX    A,@DPTR
   \   0000FC   F9           MOV     R1,A
   \   0000FD   12....       LCALL   ??osal_msg_receive?relay
   \   000100   8A..         MOV     ?V0 + 0,R2
   \   000102   8B..         MOV     ?V0 + 1,R3
   \   000104   E5..         MOV     A,?V0 + 0
   \   000106   45..         ORL     A,?V0 + 1
   \   000108   7003         JNZ     $+5
   \   00010A   02....       LJMP    ??SwitchTestApp_ProcessEvent_5 & 0xFFFF
   \   00010D   85..82       MOV     DPL,?V0 + 0
   \   000110   85..83       MOV     DPH,?V0 + 1
   \   000113   E0           MOVX    A,@DPTR
   \   000114   24E6         ADD     A,#-0x1a
   \   000116   7003         JNZ     $+5
   \   000118   02....       LJMP    ??SwitchTestApp_ProcessEvent_6 & 0xFFFF
   \   00011B   245A         ADD     A,#0x5a
   \   00011D   7003         JNZ     $+5
   \   00011F   02....       LJMP    ??SwitchTestApp_ProcessEvent_7 & 0xFFFF
   \   000122   24EF         ADD     A,#-0x11
   \   000124   7003         JNZ     $+5
   \   000126   02....       LJMP    ??SwitchTestApp_ProcessEvent_2 & 0xFFFF
   \   000129   24FE         ADD     A,#-0x2
   \   00012B   70C4         JNZ     ??SwitchTestApp_ProcessEvent_4
   \   00012D   E5..         MOV     A,?V0 + 0
   \   00012F   240C         ADD     A,#0xc
   \   000131   F582         MOV     DPL,A
   \   000133   E5..         MOV     A,?V0 + 1
   \   000135   3400         ADDC    A,#0x0
   \   000137   F583         MOV     DPH,A
   \   000139   E0           MOVX    A,@DPTR
   \   00013A   F5..         MOV     ?V0 + 2,A
   \   00013C   A3           INC     DPTR
   \   00013D   E0           MOVX    A,@DPTR
   \   00013E   F5..         MOV     ?V0 + 3,A
   \   000140   78..         MOV     R0,#?V0 + 2
   \   000142   12....       LCALL   ?US_SWITCH_SPARSE
   \                     `?<Jumptable for SwitchTestApp_ProcessEvent>_0`:
   \   000145   0000         DW        0
   \   000147   0200         DW        2
   \   000149   0680         DW        32774
   \   00014B   ....         DW        ??SwitchTestApp_ProcessEvent_8
   \   00014D   2080         DW        32800
   \   00014F   ....         DW        ??SwitchTestApp_ProcessEvent_9
   \   000151   ....         DW        ??SwitchTestApp_ProcessEvent_4
   \                     ??SwitchTestApp_ProcessEvent_8:
   \   000153                ; Setup parameters for call to function ZDO_ParseEPListRsp
   \   000153   AA..         MOV     R2,?V0 + 0
   \   000155   AB..         MOV     R3,?V0 + 1
   \   000157   12....       LCALL   ??ZDO_ParseEPListRsp?relay
   \   00015A   8A..         MOV     ?V0 + 2,R2
   \   00015C   8B..         MOV     ?V0 + 3,R3
   \   00015E   EA           MOV     A,R2
   \   00015F   45..         ORL     A,?V0 + 3
   \   000161   608E         JZ      ??SwitchTestApp_ProcessEvent_4
   \   000163   8A82         MOV     DPL,R2
   \   000165   8B83         MOV     DPH,R3
   \   000167   E0           MOVX    A,@DPTR
   \   000168   7032         JNZ     ??SwitchTestApp_ProcessEvent_10
   \   00016A   A3           INC     DPTR
   \   00016B   A3           INC     DPTR
   \   00016C   A3           INC     DPTR
   \   00016D   E0           MOVX    A,@DPTR
   \   00016E   602C         JZ      ??SwitchTestApp_ProcessEvent_10
   \   000170   90....       MOV     DPTR,#SwitchTestApp_DstAddr + 8
   \   000173   7402         MOV     A,#0x2
   \   000175   F0           MOVX    @DPTR,A
   \   000176   8A82         MOV     DPL,R2
   \   000178   8B83         MOV     DPH,R3
   \   00017A   A3           INC     DPTR
   \   00017B   E0           MOVX    A,@DPTR
   \   00017C   F8           MOV     R0,A
   \   00017D   A3           INC     DPTR
   \   00017E   E0           MOVX    A,@DPTR
   \   00017F   F9           MOV     R1,A
   \   000180   90....       MOV     DPTR,#SwitchTestApp_DstAddr
   \   000183   E8           MOV     A,R0
   \   000184   F0           MOVX    @DPTR,A
   \   000185   A3           INC     DPTR
   \   000186   E9           MOV     A,R1
   \   000187   F0           MOVX    @DPTR,A
   \   000188   8A82         MOV     DPL,R2
   \   00018A   8B83         MOV     DPH,R3
   \   00018C   A3           INC     DPTR
   \   00018D   A3           INC     DPTR
   \   00018E   A3           INC     DPTR
   \   00018F   A3           INC     DPTR
   \   000190   E0           MOVX    A,@DPTR
   \   000191   90....       MOV     DPTR,#SwitchTestApp_DstAddr + 9
   \   000194   F0           MOVX    @DPTR,A
   \   000195                ; Setup parameters for call to function HalLedSet
   \   000195   7A01         MOV     R2,#0x1
   \   000197   7908         MOV     R1,#0x8
   \   000199   12....       LCALL   ??HalLedSet?relay
   \                     ??SwitchTestApp_ProcessEvent_10:
   \   00019C                ; Setup parameters for call to function osal_mem_free
   \   00019C   AA..         MOV     R2,?V0 + 2
   \   00019E   AB..         MOV     R3,?V0 + 3
   \   0001A0   12....       LCALL   ??osal_mem_free?relay
   \   0001A3   02....       LJMP    ??SwitchTestApp_ProcessEvent_4 & 0xFFFF
   \                     ??SwitchTestApp_ProcessEvent_9:
   \   0001A6   E5..         MOV     A,?V0 + 0
   \   0001A8   2413         ADD     A,#0x13
   \   0001AA   F582         MOV     DPL,A
   \   0001AC   E5..         MOV     A,?V0 + 1
   \   0001AE   3400         ADDC    A,#0x0
   \   0001B0   F583         MOV     DPH,A
   \   0001B2   E0           MOVX    A,@DPTR
   \   0001B3   F8           MOV     R0,A
   \   0001B4   A3           INC     DPTR
   \   0001B5   E0           MOVX    A,@DPTR
   \   0001B6   F583         MOV     DPH,A
   \   0001B8   8882         MOV     DPL,R0
   \   0001BA   E0           MOVX    A,@DPTR
   \   0001BB   700A         JNZ     ??SwitchTestApp_ProcessEvent_11
   \   0001BD                ; Setup parameters for call to function HalLedSet
   \   0001BD   7A01         MOV     R2,#0x1
   \                     ??SwitchTestApp_ProcessEvent_12:
   \   0001BF   7908         MOV     R1,#0x8
   \   0001C1   12....       LCALL   ??HalLedSet?relay
   \   0001C4   02....       LJMP    ??SwitchTestApp_ProcessEvent_4 & 0xFFFF
   \                     ??SwitchTestApp_ProcessEvent_11:
   \   0001C7                ; Setup parameters for call to function HalLedSet
   \   0001C7   7A04         MOV     R2,#0x4
   \   0001C9   80F4         SJMP    ??SwitchTestApp_ProcessEvent_12
   \                     ??SwitchTestApp_ProcessEvent_7:
   \   0001CB   A3           INC     DPTR
   \   0001CC   A3           INC     DPTR
   \   0001CD   A3           INC     DPTR
   \   0001CE   E0           MOVX    A,@DPTR
   \   0001CF   F5..         MOV     ?V0 + 4,A
   \   0001D1   85..82       MOV     DPL,?V0 + 0
   \   0001D4   85..83       MOV     DPH,?V0 + 1
   \   0001D7   A3           INC     DPTR
   \   0001D8   A3           INC     DPTR
   \   0001D9   E0           MOVX    A,@DPTR
   \   0001DA   6003         JZ      $+5
   \   0001DC   02....       LJMP    ??SwitchTestApp_ProcessEvent_4 & 0xFFFF
   \   0001DF   E5..         MOV     A,?V0 + 4
   \   0001E1   A2E1         MOV     C,0xE0 /* A   */.1
   \   0001E3   5069         JNC     ??SwitchTestApp_ProcessEvent_13
   \   0001E5                ; Setup parameters for call to function HalLedSet
   \   0001E5   7A00         MOV     R2,#0x0
   \   0001E7   7908         MOV     R1,#0x8
   \   0001E9   12....       LCALL   ??HalLedSet?relay
   \   0001EC   7408         MOV     A,#0x8
   \   0001EE   12....       LCALL   ?XSTACK_DISP0_8
   \   0001F1   7402         MOV     A,#0x2
   \   0001F3   12....       LCALL   ?Subroutine1 & 0xFFFF
   \                     ??CrossCallReturnLabel_1:
   \   0001F6   E4           CLR     A
   \   0001F7   F0           MOVX    @DPTR,A
   \   0001F8   A3           INC     DPTR
   \   0001F9   F0           MOVX    @DPTR,A
   \   0001FA                ; Setup parameters for call to function NLME_GetShortAddr
   \   0001FA   12....       LCALL   ??NLME_GetShortAddr?relay
   \   0001FD   8A..         MOV     ?V0 + 2,R2
   \   0001FF   8B..         MOV     ?V0 + 3,R3
   \   000201   AC..         MOV     R4,?V0 + 2
   \   000203   AD..         MOV     R5,?V0 + 3
   \   000205   75....       MOV     ?V0 + 2,#SwitchTestApp_ClusterList & 0xff
   \   000208   75....       MOV     ?V0 + 3,#(SwitchTestApp_ClusterList >> 8) & 0xff
   \   00020B                ; Setup parameters for call to function ZDP_EndDeviceBindReq
   \   00020B   75..00       MOV     ?V0 + 5,#0x0
   \   00020E   78..         MOV     R0,#?V0 + 5
   \   000210   12....       LCALL   ?PUSH_XSTACK_I_ONE
   \   000213   78..         MOV     R0,#?V0 + 2
   \   000215   12....       LCALL   ?PUSH_XSTACK_I_TWO
   \   000218   75..01       MOV     ?V0 + 5,#0x1
   \   00021B   78..         MOV     R0,#?V0 + 5
   \   00021D   12....       LCALL   ?PUSH_XSTACK_I_ONE
   \   000220   78..         MOV     R0,#?V0 + 2
   \   000222   12....       LCALL   ?PUSH_XSTACK_I_TWO
   \   000225   75..01       MOV     ?V0 + 2,#0x1
   \   000228   78..         MOV     R0,#?V0 + 2
   \   00022A   12....       LCALL   ?PUSH_XSTACK_I_ONE
   \   00022D   75..04       MOV     ?V0 + 2,#0x4
   \   000230   75..0F       MOV     ?V0 + 3,#0xf
   \   000233   78..         MOV     R0,#?V0 + 2
   \   000235   12....       LCALL   ?PUSH_XSTACK_I_TWO
   \   000238   90....       MOV     DPTR,#SwitchTestApp_epDesc
   \   00023B   E0           MOVX    A,@DPTR
   \   00023C   F9           MOV     R1,A
   \   00023D   7409         MOV     A,#0x9
   \   00023F   12....       LCALL   ?XSTACK_DISP0_8
   \   000242   AA82         MOV     R2,DPL
   \   000244   AB83         MOV     R3,DPH
   \   000246   12....       LCALL   ??ZDP_EndDeviceBindReq?relay
   \   000249   7409         MOV     A,#0x9
   \   00024B   12....       LCALL   ?DEALLOC_XSTACK8
   \                     ??SwitchTestApp_ProcessEvent_13:
   \   00024E   E5..         MOV     A,?V0 + 4
   \   000250   A2E3         MOV     C,0xE0 /* A   */.3
   \   000252   4003         JC      $+5
   \   000254   02....       LJMP    ??SwitchTestApp_ProcessEvent_4 & 0xFFFF
   \   000257                ; Setup parameters for call to function HalLedSet
   \   000257   7A00         MOV     R2,#0x0
   \   000259   7908         MOV     R1,#0x8
   \   00025B   12....       LCALL   ??HalLedSet?relay
   \   00025E   7408         MOV     A,#0x8
   \   000260   12....       LCALL   ?XSTACK_DISP0_8
   \   000263   740F         MOV     A,#0xf
   \   000265   12....       LCALL   ?Subroutine1 & 0xFFFF
   \                     ??CrossCallReturnLabel_2:
   \   000268   74FF         MOV     A,#-0x1
   \   00026A   F0           MOVX    @DPTR,A
   \   00026B   A3           INC     DPTR
   \   00026C   F0           MOVX    @DPTR,A
   \   00026D   75....       MOV     ?V0 + 2,#SwitchTestApp_ClusterList & 0xff
   \   000270   75....       MOV     ?V0 + 3,#(SwitchTestApp_ClusterList >> 8) & 0xff
   \   000273                ; Setup parameters for call to function ZDP_MatchDescReq
   \   000273   75..00       MOV     ?V0 + 4,#0x0
   \   000276   78..         MOV     R0,#?V0 + 4
   \   000278   12....       LCALL   ?PUSH_XSTACK_I_ONE
   \   00027B   78..         MOV     R0,#?V0 + 2
   \   00027D   12....       LCALL   ?PUSH_XSTACK_I_TWO
   \   000280   75..01       MOV     ?V0 + 4,#0x1
   \   000283   78..         MOV     R0,#?V0 + 4
   \   000285   12....       LCALL   ?PUSH_XSTACK_I_ONE
   \   000288   78..         MOV     R0,#?V0 + 2
   \   00028A   12....       LCALL   ?PUSH_XSTACK_I_TWO
   \   00028D   75..04       MOV     ?V0 + 2,#0x4
   \   000290   75..0F       MOV     ?V0 + 3,#0xf
   \   000293   78..         MOV     R0,#?V0 + 2
   \   000295   12....       LCALL   ?PUSH_XSTACK_I_TWO
   \   000298   7901         MOV     R1,#0x1
   \   00029A   7CFF         MOV     R4,#-0x1
   \   00029C   7DFF         MOV     R5,#-0x1
   \   00029E   7408         MOV     A,#0x8
   \   0002A0   12....       LCALL   ?XSTACK_DISP0_8
   \   0002A3   AA82         MOV     R2,DPL
   \   0002A5   AB83         MOV     R3,DPH
   \   0002A7   12....       LCALL   ??ZDP_MatchDescReq?relay
   \   0002AA   7408         MOV     A,#0x8
   \   0002AC   12....       LCALL   ?DEALLOC_XSTACK8
   \   0002AF   02....       LJMP    ??SwitchTestApp_ProcessEvent_4 & 0xFFFF
   \                     ??SwitchTestApp_ProcessEvent_6:
   \   0002B2                ; Setup parameters for call to function SwitchTestApp_MessageMSGCB
   \   0002B2   AA..         MOV     R2,?V0 + 0
   \   0002B4   AB..         MOV     R3,?V0 + 1
   \   0002B6   12....       LCALL   ??SwitchTestApp_MessageMSGCB?relay
   \   0002B9   02....       LJMP    ??SwitchTestApp_ProcessEvent_4 & 0xFFFF
    356              }
    357          
    358              // return unprocessed events
    359              return (events ^ SYS_EVENT_MSG);
   \                     ??SwitchTestApp_ProcessEvent_5:
   \   0002BC   EE           MOV     A,R6
   \   0002BD   FA           MOV     R2,A
   \   0002BE   EF           MOV     A,R7
   \   0002BF   6480         XRL     A,#0x80
   \                     ??SwitchTestApp_ProcessEvent_14:
   \   0002C1   FB           MOV     R3,A
   \   0002C2   02....       LJMP    ??SwitchTestApp_ProcessEvent_15 & 0xFFFF
    360            }
    361          
    362            // Send a message out - This event is generated by a timer
    363            //  (setup in SwitchTestApp_Init()).
    364            if ( events & SwitchTestApp_SEND_MSG_EVT )
   \                     ??SwitchTestApp_ProcessEvent_0:
   \   0002C5   EE           MOV     A,R6
   \   0002C6   A2E0         MOV     C,0xE0 /* A   */.0
   \   0002C8   4003         JC      $+5
   \   0002CA   02....       LJMP    ??SwitchTestApp_ProcessEvent_16 & 0xFFFF
    365            {
    366              // Send "the" message
    367              SwitchTestApp_SendTheMessage();
   \   0002CD   7409         MOV     A,#0x9
   \   0002CF   12....       LCALL   ?XSTACK_DISP0_8
   \   0002D2   AC82         MOV     R4,DPL
   \   0002D4   AD83         MOV     R5,DPH
   \   0002D6   7583..       MOV     DPH,#(`?<Constant "Hello World">` >> 8) & 0xff
   \   0002D9   7582..       MOV     DPL,#`?<Constant "Hello World">` & 0xff
   \   0002DC   740C         MOV     A,#0xc
   \   0002DE   12....       LCALL   ?MOVE_LONG8_XDATA_XDATA
   \   0002E1                ; Setup parameters for call to function AF_DataRequest
   \   0002E1   75..1E       MOV     ?V0 + 0,#0x1e
   \   0002E4   78..         MOV     R0,#?V0 + 0
   \   0002E6   12....       LCALL   ?PUSH_XSTACK_I_ONE
   \   0002E9   75....       MOV     ?V0 + 0,#SwitchTestApp_TransID & 0xff
   \   0002EC   75....       MOV     ?V0 + 1,#(SwitchTestApp_TransID >> 8) & 0xff
   \   0002EF   78..         MOV     R0,#?V0 + 0
   \   0002F1   12....       LCALL   ?PUSH_XSTACK_I_TWO
   \   0002F4   740C         MOV     A,#0xc
   \   0002F6   12....       LCALL   ?XSTACK_DISP0_8
   \   0002F9   8582..       MOV     ?V0 + 0,DPL
   \   0002FC   8583..       MOV     ?V0 + 1,DPH
   \   0002FF   78..         MOV     R0,#?V0 + 0
   \   000301   12....       LCALL   ?PUSH_XSTACK_I_TWO
   \   000304                ; Setup parameters for call to function osal_strlen
   \   000304   740E         MOV     A,#0xe
   \   000306   12....       LCALL   ?XSTACK_DISP0_8
   \   000309   AA82         MOV     R2,DPL
   \   00030B   AB83         MOV     R3,DPH
   \   00030D   12....       LCALL   ??osal_strlen?relay
   \   000310   EA           MOV     A,R2
   \   000311   2401         ADD     A,#0x1
   \   000313   F5..         MOV     ?V0 + 0,A
   \   000315   E4           CLR     A
   \   000316   3400         ADDC    A,#0x0
   \   000318   F5..         MOV     ?V0 + 1,A
   \   00031A   78..         MOV     R0,#?V0 + 0
   \   00031C   12....       LCALL   ?PUSH_XSTACK_I_TWO
   \   00031F   75..01       MOV     ?V0 + 0,#0x1
   \   000322   75..00       MOV     ?V0 + 1,#0x0
   \   000325   78..         MOV     R0,#?V0 + 0
   \   000327   12....       LCALL   ?PUSH_XSTACK_I_TWO
   \   00032A   7920         MOV     R1,#0x20
   \   00032C   7C..         MOV     R4,#SwitchTestApp_epDesc & 0xff
   \   00032E   7D..         MOV     R5,#(SwitchTestApp_epDesc >> 8) & 0xff
   \   000330   7A..         MOV     R2,#SwitchTestApp_DstAddr & 0xff
   \   000332   7B..         MOV     R3,#(SwitchTestApp_DstAddr >> 8) & 0xff
   \   000334   12....       LCALL   ??AF_DataRequest?relay
   \   000337   7409         MOV     A,#0x9
   \   000339   12....       LCALL   ?DEALLOC_XSTACK8
    368          
    369              // Setup to send message again
    370              osal_start_timerEx( SwitchTestApp_TaskID,
    371                                  SwitchTestApp_SEND_MSG_EVT,
    372                                  SwitchTestApp_SEND_MSG_TIMEOUT );
   \   00033C                ; Setup parameters for call to function osal_start_timerEx
   \   00033C   7C88         MOV     R4,#-0x78
   \   00033E   7D13         MOV     R5,#0x13
   \   000340   7A01         MOV     R2,#0x1
   \   000342   7B00         MOV     R3,#0x0
   \   000344   90....       MOV     DPTR,#SwitchTestApp_TaskID
   \   000347   E0           MOVX    A,@DPTR
   \   000348   F9           MOV     R1,A
   \   000349   12....       LCALL   ??osal_start_timerEx?relay
    373          
    374              // return unprocessed events
    375              return (events ^ SwitchTestApp_SEND_MSG_EVT);
   \   00034C   EE           MOV     A,R6
   \   00034D   6401         XRL     A,#0x1
   \   00034F   FA           MOV     R2,A
   \   000350   EF           MOV     A,R7
   \   000351   02....       LJMP    ??SwitchTestApp_ProcessEvent_14 & 0xFFFF
    376            }
    377          
    378            
    379          #if defined( IAR_ARMCM3_LM )
    380            // Receive a message from the RTOS queue
    381            if ( events & SwitchTestApp_RTOS_MSG_EVT )
    382            {
    383              // Process message from RTOS queue
    384              SwitchTestApp_ProcessRtosMessage();
    385          
    386              // return unprocessed events
    387              return (events ^ SwitchTestApp_RTOS_MSG_EVT);
    388            }
    389          #endif
    390          
    391            // Discard unknown events
    392            return 0;
   \                     ??SwitchTestApp_ProcessEvent_16:
   \   000354   7A00         MOV     R2,#0x0
   \   000356   7B00         MOV     R3,#0x0
   \                     ??SwitchTestApp_ProcessEvent_15:
   \   000358   7415         MOV     A,#0x15
   \   00035A   12....       LCALL   ?DEALLOC_XSTACK8
   \   00035D                REQUIRE ?Subroutine0
   \   00035D                ; // Fall through to label ?Subroutine0
    393          }

   \                                 In  segment BANKED_CODE, align 1, keep-with-next
   \                     ?Subroutine0:
   \   000000   7F07         MOV     R7,#0x7
   \   000002   02....       LJMP    ?BANKED_LEAVE_XDATA

   \                                 In  segment BANKED_CODE, align 1, keep-with-next
   \                     ?Subroutine7:
   \   000000   12....       LCALL   ??osal_strlen?relay
   \   000003   EA           MOV     A,R2
   \   000004   FC           MOV     R4,A
   \   000005   EB           MOV     A,R3
   \   000006   FD           MOV     R5,A
   \   000007   22           RET
    394          
    395          /*********************************************************************
    396           * Event Generation Functions
    397           */
    398          
    399          /*********************************************************************
    400           * @fn      SwitchTestApp_ProcessZDOMsgs()
    401           *
    402           * @brief   Process response messages
    403           *
    404           * @param   none
    405           *
    406           * @return  none
    407           */
    408          static void SwitchTestApp_ProcessZDOMsgs( zdoIncomingMsg_t *inMsg )
    409          {
    410            switch ( inMsg->clusterID )
    411            {
    412              case End_Device_Bind_rsp:
    413                if ( ZDO_ParseBindRsp( inMsg ) == ZSuccess )
    414                {
    415                  // Light LED
    416                  HalLedSet( HAL_LED_4, HAL_LED_MODE_ON );
    417                }
    418          #if defined( BLINK_LEDS )
    419                else
    420                {
    421                  // Flash LED to show failure
    422                  HalLedSet ( HAL_LED_4, HAL_LED_MODE_FLASH );
    423                }
    424          #endif
    425                break;
    426          
    427              case Match_Desc_rsp:
    428                {
    429                  ZDO_ActiveEndpointRsp_t *pRsp = ZDO_ParseEPListRsp( inMsg );
    430                  if ( pRsp )
    431                  {
    432                    if ( pRsp->status == ZSuccess && pRsp->cnt )
    433                    {
    434                      SwitchTestApp_DstAddr.addrMode = (afAddrMode_t)Addr16Bit;
    435                      SwitchTestApp_DstAddr.addr.shortAddr = pRsp->nwkAddr;
    436                      // Take the first endpoint, Can be changed to search through endpoints
    437                      SwitchTestApp_DstAddr.endPoint = pRsp->epList[0];
    438          
    439                      // Light LED
    440                      HalLedSet( HAL_LED_4, HAL_LED_MODE_ON );
    441                    }
    442                    osal_mem_free( pRsp );
    443                  }
    444                }
    445                break;
    446            }
    447          }
    448          
    449          /*********************************************************************
    450           * @fn      SwitchTestApp_HandleKeys
    451           *
    452           * @brief   Handles all key events for this device.
    453           *
    454           * @param   shift - true if in shift/alt.
    455           * @param   keys - bit field for key events. Valid entries:
    456           *                 HAL_KEY_SW_4
    457           *                 HAL_KEY_SW_3
    458           *                 HAL_KEY_SW_2
    459           *                 HAL_KEY_SW_1
    460           *
    461           * @return  none
    462           */
    463          static void SwitchTestApp_HandleKeys( uint8 shift, uint8 keys )
    464          {
    465            zAddrType_t dstAddr;
    466          
    467            // Shift is used to make each button/switch dual purpose.
    468            if ( shift )
    469            {
    470              if ( keys & HAL_KEY_SW_1 )
    471              {
    472              }
    473              if ( keys & HAL_KEY_SW_2 )
    474              {
    475              }
    476              if ( keys & HAL_KEY_SW_3 )
    477              {
    478              }
    479              if ( keys & HAL_KEY_SW_4 )
    480              {
    481              }
    482            }
    483            else
    484            {
    485              if ( keys & HAL_KEY_SW_1 )
    486              {
    487                // Since SW1 isn't used for anything else in this application...
    488          #if defined( SWITCH1_BIND )
    489                // we can use SW1 to simulate SW2 for devices that only have one switch,
    490                keys |= HAL_KEY_SW_2;
    491          #elif defined( SWITCH1_MATCH )
    492                // or use SW1 to simulate SW4 for devices that only have one switch
    493                keys |= HAL_KEY_SW_4;
    494          #endif
    495              }
    496          
    497              if ( keys & HAL_KEY_SW_2 )
    498              {
    499                HalLedSet ( HAL_LED_4, HAL_LED_MODE_OFF );
    500          
    501                // Initiate an End Device Bind Request for the mandatory endpoint
    502                dstAddr.addrMode = Addr16Bit;
    503                dstAddr.addr.shortAddr = 0x0000; // Coordinator
    504                ZDP_EndDeviceBindReq( &dstAddr, NLME_GetShortAddr(),
    505                                      SwitchTestApp_epDesc.endPoint,
    506                                      SwitchTestApp_PROFID,
    507                                      SwitchTestApp_MAX_CLUSTERS, (cId_t *)SwitchTestApp_ClusterList,
    508                                      SwitchTestApp_MAX_CLUSTERS, (cId_t *)SwitchTestApp_ClusterList,
    509                                      FALSE );
    510              }
    511          
    512              if ( keys & HAL_KEY_SW_3 )
    513              {
    514              }
    515          
    516              if ( keys & HAL_KEY_SW_4 )
    517              {
    518                HalLedSet ( HAL_LED_4, HAL_LED_MODE_OFF );
    519                // Initiate a Match Description Request (Service Discovery)
    520                dstAddr.addrMode = AddrBroadcast;
    521                dstAddr.addr.shortAddr = NWK_BROADCAST_SHORTADDR;
    522                ZDP_MatchDescReq( &dstAddr, NWK_BROADCAST_SHORTADDR,
    523                                  SwitchTestApp_PROFID,
    524                                  SwitchTestApp_MAX_CLUSTERS, (cId_t *)SwitchTestApp_ClusterList,
    525                                  SwitchTestApp_MAX_CLUSTERS, (cId_t *)SwitchTestApp_ClusterList,
    526                                  FALSE );
    527              }
    528            }
    529          }
    530          
    531          /*********************************************************************
    532           * LOCAL FUNCTIONS
    533           */
    534          
    535          /*********************************************************************
    536           * @fn      SwitchTestApp_MessageMSGCB
    537           *
    538           * @brief   Data message processor callback.  This function processes
    539           *          any incoming data - probably from other devices.  So, based
    540           *          on cluster ID, perform the intended action.
    541           *
    542           * @param   none
    543           *
    544           * @return  none
    545           */

   \                                 In  segment BANKED_CODE, align 1, keep-with-next
    546          static void SwitchTestApp_MessageMSGCB( afIncomingMSGPacket_t *pkt )
   \                     SwitchTestApp_MessageMSGCB:
    547          {
   \   000000   74F1         MOV     A,#-0xf
   \   000002   12....       LCALL   ?BANKED_ENTER_XDATA
   \   000005                ; Saved register size: 15
   \   000005                ; Auto size: 0
   \   000005   8A..         MOV     ?V0 + 0,R2
   \   000007   8B..         MOV     ?V0 + 1,R3
    548            switch ( pkt->clusterId )
   \   000009   8A82         MOV     DPL,R2
   \   00000B   8B83         MOV     DPH,R3
   \   00000D   A3           INC     DPTR
   \   00000E   A3           INC     DPTR
   \   00000F   A3           INC     DPTR
   \   000010   A3           INC     DPTR
   \   000011   E0           MOVX    A,@DPTR
   \   000012   6401         XRL     A,#0x1
   \   000014   7002         JNZ     ??SwitchTestApp_MessageMSGCB_0
   \   000016   A3           INC     DPTR
   \   000017   E0           MOVX    A,@DPTR
   \                     ??SwitchTestApp_MessageMSGCB_0:
   \   000018   6003         JZ      $+5
   \   00001A   02....       LJMP    ??SwitchTestApp_MessageMSGCB_1 & 0xFFFF
    549            {
    550              case SwitchTestApp_CLUSTERID:
    551                HalUARTWrite(HAL_UART_PORT_0,pkt->cmd.Data,osal_strlen(pkt->cmd.Data));
                                                                              ^
Warning[Pe167]: argument of type "unsigned char *" is incompatible with
          parameter of type "char *"
   \   00001D   EA           MOV     A,R2
   \   00001E   2422         ADD     A,#0x22
   \   000020   FE           MOV     R6,A
   \   000021   EB           MOV     A,R3
   \   000022   3400         ADDC    A,#0x0
   \   000024   FF           MOV     R7,A
   \   000025                ; Setup parameters for call to function osal_strlen
   \   000025   8E82         MOV     DPL,R6
   \   000027   8F83         MOV     DPH,R7
   \   000029   E0           MOVX    A,@DPTR
   \   00002A   FA           MOV     R2,A
   \   00002B   A3           INC     DPTR
   \   00002C   E0           MOVX    A,@DPTR
   \   00002D   FB           MOV     R3,A
   \   00002E   12....       LCALL   ??osal_strlen?relay
   \   000031   8A..         MOV     ?V0 + 2,R2
   \   000033   8B..         MOV     ?V0 + 3,R3
   \   000035   AC..         MOV     R4,?V0 + 2
   \   000037   AD..         MOV     R5,?V0 + 3
   \   000039                ; Setup parameters for call to function HalUARTWrite
   \   000039   8E82         MOV     DPL,R6
   \   00003B   8F83         MOV     DPH,R7
   \   00003D   E0           MOVX    A,@DPTR
   \   00003E   FA           MOV     R2,A
   \   00003F   A3           INC     DPTR
   \   000040   E0           MOVX    A,@DPTR
   \   000041   FB           MOV     R3,A
   \   000042   7900         MOV     R1,#0x0
   \   000044   12....       LCALL   ??HalUARTWrite?relay
    552                osal_memcpy(CodRecv_AFBuf,pkt->cmd.Data,AF_TXRX_DATA_LEN);
   \   000047                ; Setup parameters for call to function osal_memcpy
   \   000047   8E82         MOV     DPL,R6
   \   000049   8F83         MOV     DPH,R7
   \   00004B   E0           MOVX    A,@DPTR
   \   00004C   F5..         MOV     ?V0 + 4,A
   \   00004E   A3           INC     DPTR
   \   00004F   E0           MOVX    A,@DPTR
   \   000050   F5..         MOV     ?V0 + 5,A
   \   000052   75..00       MOV     ?V0 + 6,#0x0
   \   000055   78..         MOV     R0,#?V0 + 4
   \   000057   12....       LCALL   ?PUSH_XSTACK_I_THREE
   \   00005A   7C10         MOV     R4,#0x10
   \   00005C   7D00         MOV     R5,#0x0
   \   00005E   7A..         MOV     R2,#CodRecv_AFBuf & 0xff
   \   000060   7B..         MOV     R3,#(CodRecv_AFBuf >> 8) & 0xff
   \   000062   12....       LCALL   ??osal_memcpy?relay
   \   000065   7403         MOV     A,#0x3
   \   000067   12....       LCALL   ?DEALLOC_XSTACK8
    553                //if(CodRecv_AFBuf[0]=='&' && CodRecv_AFBuf[1]=='&')
    554                {
    555                    //组网发送信息
    556                    if(osal_memcmp(CodRecv_AFBuf,"&&OPENLED1<<",osal_strlen("&&OPENLED1<<")))
   \   00006A                ; Setup parameters for call to function osal_memcmp
   \   00006A   75....       MOV     ?V0 + 4,#`?<Constant "&&OPENLED1<<">` & 0xff
   \   00006D   75....       MOV     ?V0 + 5,#(`?<Constant "&&OPENLED1<<">` >> 8) & 0xff
   \   000070   78..         MOV     R0,#?V0 + 4
   \   000072   12....       LCALL   ?PUSH_XSTACK_I_THREE
   \   000075                ; Setup parameters for call to function osal_strlen
   \   000075   7A..         MOV     R2,#`?<Constant "&&OPENLED1<<">` & 0xff
   \   000077   7B..         MOV     R3,#(`?<Constant "&&OPENLED1<<">` >> 8) & 0xff
   \   000079   12....       LCALL   ?Subroutine7 & 0xFFFF
   \                     ??CrossCallReturnLabel_12:
   \   00007C   79..         MOV     R1,#CodRecv_AFBuf & 0xff
   \   00007E   7A..         MOV     R2,#(CodRecv_AFBuf >> 8) & 0xff
   \   000080   12....       LCALL   ??Subroutine8_0 & 0xFFFF
   \                     ??CrossCallReturnLabel_21:
   \   000083   12....       LCALL   ?DEALLOC_XSTACK8
   \   000086   E9           MOV     A,R1
   \   000087   600E         JZ      ??SwitchTestApp_MessageMSGCB_2
    557                    {
    558                        OPENLED1;
   \   000089   12....       LCALL   ?Subroutine2 & 0xFFFF
    559          	      HalUARTWrite(HAL_UART_PORT_0,"open led 1",osal_strlen("open led 1"));
   \                     ??CrossCallReturnLabel_3:
   \   00008C   7900         MOV     R1,#0x0
   \   00008E   12....       LCALL   ??HalUARTWrite?relay
    560                        HalLedSet ( HAL_LED_1, HAL_LED_MODE_TOGGLE );
   \   000091                ; Setup parameters for call to function HalLedSet
   \   000091   7A08         MOV     R2,#0x8
   \   000093   7901         MOV     R1,#0x1
   \   000095   806A         SJMP    ??SwitchTestApp_MessageMSGCB_3
    561                    }
    562                    else if(osal_memcmp(CodRecv_AFBuf,"&&OPENLED2<<",12))
   \                     ??SwitchTestApp_MessageMSGCB_2:
   \   000097                ; Setup parameters for call to function osal_memcmp
   \   000097   75....       MOV     ?V0 + 4,#`?<Constant "&&OPENLED2<<">` & 0xff
   \   00009A   75....       MOV     ?V0 + 5,#(`?<Constant "&&OPENLED2<<">` >> 8) & 0xff
   \   00009D   78..         MOV     R0,#?V0 + 4
   \   00009F   12....       LCALL   ?PUSH_XSTACK_I_THREE
   \   0000A2   7C0C         MOV     R4,#0xc
   \   0000A4   7D00         MOV     R5,#0x0
   \   0000A6   79..         MOV     R1,#CodRecv_AFBuf & 0xff
   \   0000A8   7A..         MOV     R2,#(CodRecv_AFBuf >> 8) & 0xff
   \   0000AA   12....       LCALL   ??Subroutine8_0 & 0xFFFF
   \                     ??CrossCallReturnLabel_22:
   \   0000AD   12....       LCALL   ?DEALLOC_XSTACK8
   \   0000B0   E9           MOV     A,R1
   \   0000B1   6005         JZ      ??SwitchTestApp_MessageMSGCB_4
    563                    {
    564                          //FSetShortAddr(SwitchRouterAddr,);
    565                        OPENLED2;
   \   0000B3   12....       LCALL   ?Subroutine3 & 0xFFFF
    566                        HalUARTWrite(HAL_UART_PORT_0,"open led 2",osal_strlen("open led 2"));
    567                        HalLedSet ( HAL_LED_2, HAL_LED_MODE_TOGGLE );
    568                    }
   \                     ??CrossCallReturnLabel_5:
   \   0000B6   8040         SJMP    ??CrossCallReturnLabel_9
    569                    else if(osal_memcmp(CodRecv_AFBuf,"&&CLOSELED1<<",12))
   \                     ??SwitchTestApp_MessageMSGCB_4:
   \   0000B8                ; Setup parameters for call to function osal_memcmp
   \   0000B8   75....       MOV     ?V0 + 4,#`?<Constant "&&CLOSELED1<<">` & 0xff
   \   0000BB   75....       MOV     ?V0 + 5,#(`?<Constant "&&CLOSELED1<<">` >> 8) & 0xff
   \   0000BE   78..         MOV     R0,#?V0 + 4
   \   0000C0   12....       LCALL   ?PUSH_XSTACK_I_THREE
   \   0000C3   7C0C         MOV     R4,#0xc
   \   0000C5   7D00         MOV     R5,#0x0
   \   0000C7   79..         MOV     R1,#CodRecv_AFBuf & 0xff
   \   0000C9   7A..         MOV     R2,#(CodRecv_AFBuf >> 8) & 0xff
   \   0000CB   12....       LCALL   ??Subroutine8_0 & 0xFFFF
   \                     ??CrossCallReturnLabel_23:
   \   0000CE   12....       LCALL   ?DEALLOC_XSTACK8
   \   0000D1   E9           MOV     A,R1
   \   0000D2   6005         JZ      ??SwitchTestApp_MessageMSGCB_5
    570                    {
    571                        //FSetShortAddr(SwitchRouterAddr,);
    572                        CLOSLED1;
   \   0000D4   12....       LCALL   ?Subroutine4 & 0xFFFF
    573                        HalUARTWrite(HAL_UART_PORT_0,"Close led 1",osal_strlen("Close led 1"));
    574                        HalLedSet ( HAL_LED_1, HAL_LED_MODE_TOGGLE );
    575                    }
   \                     ??CrossCallReturnLabel_7:
   \   0000D7   80B3         SJMP    ??CrossCallReturnLabel_3
    576                    else if(osal_memcmp(CodRecv_AFBuf,"&&CLOSELED2<<",12))
   \                     ??SwitchTestApp_MessageMSGCB_5:
   \   0000D9                ; Setup parameters for call to function osal_memcmp
   \   0000D9   75....       MOV     ?V0 + 4,#`?<Constant "&&CLOSELED2<<">` & 0xff
   \   0000DC   75....       MOV     ?V0 + 5,#(`?<Constant "&&CLOSELED2<<">` >> 8) & 0xff
   \   0000DF   78..         MOV     R0,#?V0 + 4
   \   0000E1   12....       LCALL   ?PUSH_XSTACK_I_THREE
   \   0000E4   7C0C         MOV     R4,#0xc
   \   0000E6   7D00         MOV     R5,#0x0
   \   0000E8   79..         MOV     R1,#CodRecv_AFBuf & 0xff
   \   0000EA   7A..         MOV     R2,#(CodRecv_AFBuf >> 8) & 0xff
   \   0000EC   12....       LCALL   ??Subroutine8_0 & 0xFFFF
   \                     ??CrossCallReturnLabel_24:
   \   0000EF   12....       LCALL   ?DEALLOC_XSTACK8
   \   0000F2   E9           MOV     A,R1
   \   0000F3   600F         JZ      ??SwitchTestApp_MessageMSGCB_6
    577                    {
    578                        //FSetShortAddr(SwitchRouterAddr,);
    579                        CLOSLED2;
   \   0000F5   12....       LCALL   ?Subroutine5 & 0xFFFF
    580                        HalUARTWrite(HAL_UART_PORT_0,"Close led 2",osal_strlen("Close led 2"));
   \                     ??CrossCallReturnLabel_9:
   \   0000F8   7900         MOV     R1,#0x0
   \   0000FA   12....       LCALL   ??HalUARTWrite?relay
    581                        HalLedSet ( HAL_LED_2, HAL_LED_MODE_TOGGLE );
   \   0000FD                ; Setup parameters for call to function HalLedSet
   \   0000FD   7A08         MOV     R2,#0x8
   \   0000FF   7902         MOV     R1,#0x2
   \                     ??SwitchTestApp_MessageMSGCB_3:
   \   000101   12....       LCALL   ??HalLedSet?relay
    582                    }
    583                    
    584                    
    585                    
    586                }
    587                
    588                
    589                // "the" message
    590          #if defined( LCD_SUPPORTED )
    591                HalLcdWriteScreen( (char*)pkt->cmd.Data, "rcvd" );
   \                     ??SwitchTestApp_MessageMSGCB_6:
   \   000104                ; Setup parameters for call to function HalLcdWriteScreen
   \   000104   7C..         MOV     R4,#`?<Constant "rcvd">` & 0xff
   \   000106   7D..         MOV     R5,#(`?<Constant "rcvd">` >> 8) & 0xff
   \   000108   E5..         MOV     A,?V0 + 0
   \   00010A   2422         ADD     A,#0x22
   \   00010C   F582         MOV     DPL,A
   \   00010E   E5..         MOV     A,?V0 + 1
   \   000110   3400         ADDC    A,#0x0
   \   000112   F583         MOV     DPH,A
   \   000114   E0           MOVX    A,@DPTR
   \   000115   FA           MOV     R2,A
   \   000116   A3           INC     DPTR
   \   000117   E0           MOVX    A,@DPTR
   \   000118   FB           MOV     R3,A
   \   000119   12....       LCALL   ??HalLcdWriteScreen?relay
    592          #elif defined( WIN32 )
    593                WPRINTSTR( pkt->cmd.Data );
    594          #endif
    595                break;
    596            }
    597          }
   \                     ??SwitchTestApp_MessageMSGCB_1:
   \   00011C   02....       LJMP    ?Subroutine0 & 0xFFFF
   \   00011F                REQUIRE _A_P1

   \                                 In  segment BANKED_CODE, align 1, keep-with-next
   \                     ??Subroutine8_0:
   \   000000   7B00         MOV     R3,#0x0
   \   000002   12....       LCALL   ??osal_memcmp?relay
   \   000005   7403         MOV     A,#0x3
   \   000007   22           RET

   \                                 In  segment BANKED_CODE, align 1, keep-with-next
   \                     ?Subroutine5:
   \   000000   D293         SETB    0x90.3
   \   000002                ; Setup parameters for call to function HalUARTWrite
   \   000002                ; Setup parameters for call to function osal_strlen
   \   000002                ; Setup parameters for call to function HalUARTWrite
   \   000002                ; Setup parameters for call to function osal_strlen
   \   000002   7A..         MOV     R2,#`?<Constant "Close led 2">` & 0xff
   \   000004   7B..         MOV     R3,#(`?<Constant "Close led 2">` >> 8) & 0xff
   \   000006   12....       LCALL   ?Subroutine7 & 0xFFFF
   \                     ??CrossCallReturnLabel_13:
   \   000009   7A..         MOV     R2,#`?<Constant "Close led 2">` & 0xff
   \   00000B   7B..         MOV     R3,#(`?<Constant "Close led 2">` >> 8) & 0xff
   \   00000D   22           RET

   \                                 In  segment BANKED_CODE, align 1, keep-with-next
   \                     ?Subroutine4:
   \   000000   D292         SETB    0x90.2
   \   000002                ; Setup parameters for call to function HalUARTWrite
   \   000002                ; Setup parameters for call to function osal_strlen
   \   000002                ; Setup parameters for call to function HalUARTWrite
   \   000002                ; Setup parameters for call to function osal_strlen
   \   000002   7A..         MOV     R2,#`?<Constant "Close led 1">` & 0xff
   \   000004   7B..         MOV     R3,#(`?<Constant "Close led 1">` >> 8) & 0xff
   \   000006   12....       LCALL   ?Subroutine7 & 0xFFFF
   \                     ??CrossCallReturnLabel_14:
   \   000009   7A..         MOV     R2,#`?<Constant "Close led 1">` & 0xff
   \   00000B   7B..         MOV     R3,#(`?<Constant "Close led 1">` >> 8) & 0xff
   \   00000D   22           RET

   \                                 In  segment BANKED_CODE, align 1, keep-with-next
   \                     ?Subroutine3:
   \   000000   C293         CLR     0x90.3
   \   000002                ; Setup parameters for call to function HalUARTWrite
   \   000002                ; Setup parameters for call to function osal_strlen
   \   000002                ; Setup parameters for call to function HalUARTWrite
   \   000002                ; Setup parameters for call to function osal_strlen
   \   000002   7A..         MOV     R2,#`?<Constant "open led 2">` & 0xff
   \   000004   7B..         MOV     R3,#(`?<Constant "open led 2">` >> 8) & 0xff
   \   000006   12....       LCALL   ?Subroutine7 & 0xFFFF
   \                     ??CrossCallReturnLabel_15:
   \   000009   7A..         MOV     R2,#`?<Constant "open led 2">` & 0xff
   \   00000B   7B..         MOV     R3,#(`?<Constant "open led 2">` >> 8) & 0xff
   \   00000D   22           RET

   \                                 In  segment BANKED_CODE, align 1, keep-with-next
   \                     ?Subroutine2:
   \   000000   C292         CLR     0x90.2
   \   000002                ; Setup parameters for call to function HalUARTWrite
   \   000002                ; Setup parameters for call to function osal_strlen
   \   000002                ; Setup parameters for call to function HalUARTWrite
   \   000002                ; Setup parameters for call to function osal_strlen
   \   000002   7A..         MOV     R2,#`?<Constant "open led 1">` & 0xff
   \   000004   7B..         MOV     R3,#(`?<Constant "open led 1">` >> 8) & 0xff
   \   000006   12....       LCALL   ?Subroutine7 & 0xFFFF
   \                     ??CrossCallReturnLabel_16:
   \   000009   7A..         MOV     R2,#`?<Constant "open led 1">` & 0xff
   \   00000B   7B..         MOV     R3,#(`?<Constant "open led 1">` >> 8) & 0xff
   \   00000D   22           RET
    598          
    599          /*********************************************************************
    600           * @fn      SwitchTestApp_SendTheMessage
    601           *
    602           * @brief   Send "the" message.
    603           *
    604           * @param   none
    605           *
    606           * @return  none
    607           */
    608          static void SwitchTestApp_SendTheMessage( void )
    609          {
    610            char theMessageData[] = "Hello World";
    611          
    612            if ( AF_DataRequest( &SwitchTestApp_DstAddr, &SwitchTestApp_epDesc,
    613                                 SwitchTestApp_CLUSTERID,
    614                                 (byte)osal_strlen( theMessageData ) + 1,
    615                                 (byte *)&theMessageData,
    616                                 &SwitchTestApp_TransID,
    617                                 AF_DISCV_ROUTE, AF_DEFAULT_RADIUS ) == afStatus_SUCCESS )
    618            {
    619              // Successfully requested to be sent.
    620            }
    621            else
    622            {
    623              // Error occurred in request to send.
    624            }
    625          }
    626          
    627          
    628          /*********************************************************************
    629           * @fn      SwitchTestApp_SendTheMessage
    630           *
    631           * @brief   Send "the" message.
    632           *
    633           * @param   none
    634           *
    635           * @return  none
    636           */
    637          static void SwitchTestApp_SendROUMsg( void )
    638          {
    639            //char theMessageData[] = "Hello World";
    640            
    641            afAddrType_t dstAddrType_t;
    642            
    643            dstAddrType_t.addrMode = (afAddrMode_t)Addr16Bit;
    644            dstAddrType_t.endPoint = SwitchTestApp_ENDPOINT;
    645            dstAddrType_t.addr.shortAddr = 0x0000;
    646            
    647            osal_memset(CodSend_AFBuf,0,AF_TXRX_DATA_LEN);
    648            osal_memcpy(CodSend_AFBuf,"&&ROUTER_LINK<<",AF_TXRX_DATA_LEN);
    649          
    650            if ( AF_DataRequest( &dstAddrType_t, &SwitchTestApp_epDesc,
    651                                 SwitchTestApp_CLUSTERID,
    652                                 (byte)osal_strlen( CodSend_AFBuf ) + 1,
                                                           ^
Warning[Pe167]: argument of type "unsigned char *" is incompatible with
          parameter of type "char *"
    653                                 (byte *)&CodSend_AFBuf,
    654                                 &SwitchTestApp_TransID,
    655                                 AF_DISCV_ROUTE, AF_DEFAULT_RADIUS ) == afStatus_SUCCESS )
    656            {
    657              // Successfully requested to be sent.
    658            }
    659            else
    660            {
    661              // Error occurred in request to send.
    662            }
    663          }
    664          
    665          #if defined( IAR_ARMCM3_LM )
    666          /*********************************************************************
    667           * @fn      SwitchTestApp_ProcessRtosMessage
    668           *
    669           * @brief   Receive message from RTOS queue, send response back.
    670           *
    671           * @param   none
    672           *
    673           * @return  none
    674           */
    675          static void SwitchTestApp_ProcessRtosMessage( void )
    676          {
    677            osalQueue_t inMsg;
    678          
    679            if ( osal_queue_receive( OsalQueue, &inMsg, 0 ) == pdPASS )
    680            {
    681              uint8 cmndId = inMsg.cmnd;
    682              uint32 counter = osal_build_uint32( inMsg.cbuf, 4 );
    683          
    684              switch ( cmndId )
    685              {
    686                case CMD_INCR:
    687                  counter += 1;  /* Increment the incoming counter */
    688                                 /* Intentionally fall through next case */
    689          
    690                case CMD_ECHO:
    691                {
    692                  userQueue_t outMsg;
    693          
    694                  outMsg.resp = RSP_CODE | cmndId;  /* Response ID */
    695                  osal_buffer_uint32( outMsg.rbuf, counter );    /* Increment counter */
    696                  osal_queue_send( UserQueue1, &outMsg, 0 );  /* Send back to UserTask */
    697                  break;
    698                }
    699                
    700                default:
    701                  break;  /* Ignore unknown command */    
    702              }
    703            }
    704          }
    705          #endif
    706          
    707          
    708          /*********************************************************************
    709           * @fn      SerialApp_CallBack
    710           *
    711           * @brief   Send data OTA.
    712           *
    713           * @param   port - UART port.
    714           * @param   event - the UART port event flag.
    715           *
    716           * @return  none
    717           */

   \                                 In  segment BANKED_CODE, align 1, keep-with-next
    718          static void SerialApp_CallBack(uint8 port, uint8 event)
   \                     SerialApp_CallBack:
    719          {
   \   000000   74F5         MOV     A,#-0xb
   \   000002   12....       LCALL   ?BANKED_ENTER_XDATA
   \   000005                ; Saved register size: 11
   \   000005                ; Auto size: 0
    720              (void)port;
    721          
    722              uint8 readLen = 0;
    723          
    724              osal_memset(SerialApp_RxBuf,0,SERIAL_APP_RSP_CNT);
   \   000005                ; Setup parameters for call to function osal_memset
   \   000005   7CFE         MOV     R4,#-0x2
   \   000007   7D00         MOV     R5,#0x0
   \   000009   7900         MOV     R1,#0x0
   \   00000B   7A..         MOV     R2,#SerialApp_RxBuf & 0xff
   \   00000D   7B..         MOV     R3,#(SerialApp_RxBuf >> 8) & 0xff
   \   00000F   12....       LCALL   ??osal_memset?relay
    725            
    726              readLen =  HalUARTRead(HAL_UART_PORT_0,SerialApp_RxBuf,SERIAL_APP_RSP_CNT);
    727              if(0 < readLen)
   \   000012                ; Setup parameters for call to function HalUARTRead
   \   000012   7CFE         MOV     R4,#-0x2
   \   000014   7D00         MOV     R5,#0x0
   \   000016   7A..         MOV     R2,#SerialApp_RxBuf & 0xff
   \   000018   7B..         MOV     R3,#(SerialApp_RxBuf >> 8) & 0xff
   \   00001A   7900         MOV     R1,#0x0
   \   00001C   12....       LCALL   ??HalUARTRead?relay
   \   00001F   EA           MOV     A,R2
   \   000020   606A         JZ      ??SerialApp_CallBack_0
    728              {
    729                    //osal_memcpy(SerialApp_RxBuf,"&&CLOSELED1<<",osal_strlen("&&CLOSELED1<<"));
    730                    //Switch_SendMsgToRouter();  
    731                  if(osal_memcmp(SerialApp_RxBuf,"&&OPENLED1<<",AF_TXRX_DATA_LEN))
   \   000022                ; Setup parameters for call to function osal_memcmp
   \   000022   75....       MOV     ?V0 + 0,#`?<Constant "&&OPENLED1<<">` & 0xff
   \   000025   75....       MOV     ?V0 + 1,#(`?<Constant "&&OPENLED1<<">` >> 8) & 0xff
   \   000028   75..00       MOV     ?V0 + 2,#0x0
   \   00002B   78..         MOV     R0,#?V0 + 0
   \   00002D   12....       LCALL   ?PUSH_XSTACK_I_THREE
   \   000030   12....       LCALL   ?Subroutine6 & 0xFFFF
   \                     ??CrossCallReturnLabel_17:
   \   000033   12....       LCALL   ?DEALLOC_XSTACK8
   \   000036   E9           MOV     A,R1
   \   000037   6005         JZ      ??SerialApp_CallBack_1
    732                  {
    733                      OPENLED1;
   \   000039   12....       LCALL   ?Subroutine2 & 0xFFFF
    734          	    HalUARTWrite(HAL_UART_PORT_0,"open led 1",osal_strlen("open led 1"));
    735                  }
   \                     ??CrossCallReturnLabel_4:
   \   00003C   8049         SJMP    ??CrossCallReturnLabel_10
    736                  else if(osal_memcmp(SerialApp_RxBuf,"&&OPENLED2<<",AF_TXRX_DATA_LEN))
   \                     ??SerialApp_CallBack_1:
   \   00003E                ; Setup parameters for call to function osal_memcmp
   \   00003E   75....       MOV     ?V0 + 0,#`?<Constant "&&OPENLED2<<">` & 0xff
   \   000041   75....       MOV     ?V0 + 1,#(`?<Constant "&&OPENLED2<<">` >> 8) & 0xff
   \   000044   78..         MOV     R0,#?V0 + 0
   \   000046   12....       LCALL   ?PUSH_XSTACK_I_THREE
   \   000049   12....       LCALL   ?Subroutine6 & 0xFFFF
   \                     ??CrossCallReturnLabel_18:
   \   00004C   12....       LCALL   ?DEALLOC_XSTACK8
   \   00004F   E9           MOV     A,R1
   \   000050   6005         JZ      ??SerialApp_CallBack_2
    737                  {
    738                          //FSetShortAddr(SwitchRouterAddr,);
    739                      OPENLED2;
   \   000052   12....       LCALL   ?Subroutine3 & 0xFFFF
    740                      HalUARTWrite(HAL_UART_PORT_0,"open led 2",osal_strlen("open led 2"));
    741                  }
   \                     ??CrossCallReturnLabel_6:
   \   000055   8030         SJMP    ??CrossCallReturnLabel_10
    742                  else if(osal_memcmp(SerialApp_RxBuf,"&&CLOSELED1<<",AF_TXRX_DATA_LEN))
   \                     ??SerialApp_CallBack_2:
   \   000057                ; Setup parameters for call to function osal_memcmp
   \   000057   75....       MOV     ?V0 + 0,#`?<Constant "&&CLOSELED1<<">` & 0xff
   \   00005A   75....       MOV     ?V0 + 1,#(`?<Constant "&&CLOSELED1<<">` >> 8) & 0xff
   \   00005D   78..         MOV     R0,#?V0 + 0
   \   00005F   12....       LCALL   ?PUSH_XSTACK_I_THREE
   \   000062   12....       LCALL   ?Subroutine6 & 0xFFFF
   \                     ??CrossCallReturnLabel_19:
   \   000065   12....       LCALL   ?DEALLOC_XSTACK8
   \   000068   E9           MOV     A,R1
   \   000069   6005         JZ      ??SerialApp_CallBack_3
    743                  {
    744                      //FSetShortAddr(SwitchRouterAddr,);
    745                      CLOSLED1;
   \   00006B   12....       LCALL   ?Subroutine4 & 0xFFFF
    746                      HalUARTWrite(HAL_UART_PORT_0,"Close led 1",osal_strlen("Close led 1"));
    747                  }
   \                     ??CrossCallReturnLabel_8:
   \   00006E   8017         SJMP    ??CrossCallReturnLabel_10
    748                  else if(osal_memcmp(SerialApp_RxBuf,"&&CLOSELED2<<",AF_TXRX_DATA_LEN))
   \                     ??SerialApp_CallBack_3:
   \   000070                ; Setup parameters for call to function osal_memcmp
   \   000070   75....       MOV     ?V0 + 0,#`?<Constant "&&CLOSELED2<<">` & 0xff
   \   000073   75....       MOV     ?V0 + 1,#(`?<Constant "&&CLOSELED2<<">` >> 8) & 0xff
   \   000076   78..         MOV     R0,#?V0 + 0
   \   000078   12....       LCALL   ?PUSH_XSTACK_I_THREE
   \   00007B   12....       LCALL   ?Subroutine6 & 0xFFFF
   \                     ??CrossCallReturnLabel_20:
   \   00007E   12....       LCALL   ?DEALLOC_XSTACK8
   \   000081   E9           MOV     A,R1
   \   000082   6008         JZ      ??SerialApp_CallBack_0
    749                  {
    750                      //FSetShortAddr(SwitchRouterAddr,);
    751                      CLOSLED2;
   \   000084   12....       LCALL   ?Subroutine5 & 0xFFFF
    752                      HalUARTWrite(HAL_UART_PORT_0,"Close led 2",osal_strlen("Close led 2"));
    753                  }
    754              }
   \                     ??CrossCallReturnLabel_10:
   \   000087   7900         MOV     R1,#0x0
   \   000089   12....       LCALL   ??HalUARTWrite?relay
    755            
    756          
    757            #if 0
    758            if ((event & (HAL_UART_RX_FULL | HAL_UART_RX_ABOUT_FULL | HAL_UART_RX_TIMEOUT)) &&
    759                  !SerialApp_TxLen)
    760          
    761            {
    762               //SerialApp_Send();
    763            }
    764            #endif
    765          }
   \                     ??SerialApp_CallBack_0:
   \   00008C   7F03         MOV     R7,#0x3
   \   00008E   02....       LJMP    ?BANKED_LEAVE_XDATA
   \   000091                REQUIRE _A_P1

   \                                 In  segment BANKED_CODE, align 1, keep-with-next
   \                     ?Subroutine6:
   \   000000   7C10         MOV     R4,#0x10
   \   000002   7D00         MOV     R5,#0x0
   \   000004   79..         MOV     R1,#SerialApp_RxBuf & 0xff
   \   000006   7A..         MOV     R2,#(SerialApp_RxBuf >> 8) & 0xff
   \   000008                REQUIRE ??Subroutine8_0
   \   000008                ; // Fall through to label ??Subroutine8_0

   \                                 In  segment BANK_RELAYS, align 1
   \                     ??Init_Port?relay:
   \   000000   12....       LCALL   ?BDISPATCH
   \   000003   ......       DC24    Init_Port

   \                                 In  segment BANK_RELAYS, align 1
   \                     ??SwitchTestApp_Init?relay:
   \   000000   12....       LCALL   ?BDISPATCH
   \   000003   ......       DC24    SwitchTestApp_Init

   \                                 In  segment BANK_RELAYS, align 1
   \                     ??SwitchTestApp_ProcessEvent?relay:
   \   000000   12....       LCALL   ?BDISPATCH
   \   000003   ......       DC24    SwitchTestApp_ProcessEvent

   \                                 In  segment BANK_RELAYS, align 1
   \                     ??SwitchTestApp_MessageMSGCB?relay:
   \   000000   12....       LCALL   ?BDISPATCH
   \   000003   ......       DC24    SwitchTestApp_MessageMSGCB

   \                                 In  segment BANK_RELAYS, align 1
   \                     ??SerialApp_CallBack?relay:
   \   000000   12....       LCALL   ?BDISPATCH
   \   000003   ......       DC24    SerialApp_CallBack

   \                                 In  segment XDATA_ROM_C, align 1
   \                     `?<Constant "SwitchTestApp">`:
   \   000000   53776974     DB "SwitchTestApp"
   \            63685465
   \            73744170
   \            7000    

   \                                 In  segment XDATA_ROM_C, align 1
   \                     `?<Constant ">>Router LINK State <<">`:
   \   000000   3E3E526F     DB ">>Router LINK State <<"
   \            75746572
   \            204C494E
   \            4B205374
   \            61746520
   \            3C3C00  

   \                                 In  segment XDATA_ROM_C, align 1
   \                     `?<Constant ">>Router LINK State ">`:
   \   000000   3E3E526F     DB ">>Router LINK State "
   \            75746572
   \            204C494E
   \            4B205374
   \            61746520
   \            00      

   \                                 In  segment XDATA_ROM_C, align 1
   \                     `?<Constant "&&OPENLED1<<">`:
   \   000000   26264F50     DB "&&OPENLED1<<"
   \            454E4C45
   \            44313C3C
   \            00      

   \                                 In  segment XDATA_ROM_C, align 1
   \                     `?<Constant "open led 1">`:
   \   000000   6F70656E     DB "open led 1"
   \            206C6564
   \            203100  

   \                                 In  segment XDATA_ROM_C, align 1
   \                     `?<Constant "&&OPENLED2<<">`:
   \   000000   26264F50     DB "&&OPENLED2<<"
   \            454E4C45
   \            44323C3C
   \            00      

   \                                 In  segment XDATA_ROM_C, align 1
   \                     `?<Constant "open led 2">`:
   \   000000   6F70656E     DB "open led 2"
   \            206C6564
   \            203200  

   \                                 In  segment XDATA_ROM_C, align 1
   \                     `?<Constant "&&CLOSELED1<<">`:
   \   000000   2626434C     DB "&&CLOSELED1<<"
   \            4F53454C
   \            4544313C
   \            3C00    

   \                                 In  segment XDATA_ROM_C, align 1
   \                     `?<Constant "Close led 1">`:
   \   000000   436C6F73     DB "Close led 1"
   \            65206C65
   \            64203100

   \                                 In  segment XDATA_ROM_C, align 1
   \                     `?<Constant "&&CLOSELED2<<">`:
   \   000000   2626434C     DB "&&CLOSELED2<<"
   \            4F53454C
   \            4544323C
   \            3C00    

   \                                 In  segment XDATA_ROM_C, align 1
   \                     `?<Constant "Close led 2">`:
   \   000000   436C6F73     DB "Close led 2"
   \            65206C65
   \            64203200

   \                                 In  segment XDATA_ROM_C, align 1
   \                     `?<Constant "rcvd">`:
   \   000000   72637664     DB "rcvd"
   \            00      

   \                                 In  segment XDATA_ROM_C, align 1
   \                     `?<Constant "Hello World">`:
   \   000000   48656C6C     DB "Hello World"
   \            6F20576F
   \            726C6400

   \                                 In  segment XDATA_ROM_C, align 1
   \                     `?<Constant "&&ROUTER_LINK<<">`:
   \   000000   2626524F     DB "&&ROUTER_LINK<<"
   \            55544552
   \            5F4C494E
   \            4B3C3C00
    766          
    767          
    768          /*********************************************************************
    769           */

   Maximum stack usage in bytes:

     Function                       ISTACK PSTACK XSTACK
     --------                       ------ ------ ------
     Init_Port                          0      0     38
     SerialApp_CallBack                 0      0     14
       -> osal_memset                   0      0     22
       -> HalUARTRead                   0      0     22
       -> osal_memcmp                   0      0     28
       -> osal_strlen                   0      0     22
       -> HalUARTWrite                  0      0     22
       -> osal_memcmp                   0      0     28
       -> osal_strlen                   0      0     22
       -> HalUARTWrite                  0      0     22
       -> osal_memcmp                   0      0     28
       -> osal_strlen                   0      0     22
       -> HalUARTWrite                  0      0     22
       -> osal_memcmp                   0      0     28
       -> osal_strlen                   0      0     22
       -> HalUARTWrite                  0      0     22
     SwitchTestApp_Init                 0      0     38
       -> afRegister                    0      0     76
       -> RegisterForKeys               0      0     76
       -> HalUARTOpen                   0      0     76
       -> Init_Port                     0      0     76
       -> HalLcdWriteString             0      0     76
       -> ZDO_RegisterForZDOMsg         0      0     76
       -> ZDO_RegisterForZDOMsg         0      0     76
     SwitchTestApp_MessageMSGCB         0      0     54
       -> osal_strlen                   0      0     30
       -> HalUARTWrite                  0      0     30
       -> osal_memcpy                   0      0     36
       -> osal_strlen                   0      0     36
       -> osal_memcmp                   0      0     36
       -> osal_strlen                   0      0     30
       -> HalUARTWrite                  0      0     30
       -> HalLedSet                     0      0     30
       -> osal_memcmp                   0      0     36
       -> osal_strlen                   0      0     30
       -> HalUARTWrite                  0      0     30
       -> HalLedSet                     0      0     30
       -> osal_memcmp                   0      0     36
       -> osal_strlen                   0      0     30
       -> HalUARTWrite                  0      0     30
       -> HalLedSet                     0      0     30
       -> osal_memcmp                   0      0     36
       -> osal_strlen                   0      0     30
       -> HalUARTWrite                  0      0     30
       -> HalLedSet                     0      0     30
       -> HalLcdWriteScreen             0      0     30
     SwitchTestApp_ProcessEvent         2      0     45
       -> osal_msg_receive              0      0     72
       -> osal_start_timerEx            0      0     72
       -> osal_strlen                   0      0     72
       -> HalUARTWrite                  0      0     72
       -> osal_memset                   0      0     72
       -> osal_memcpy                   0      0     78
       -> osal_strlen                   0      0     82
       -> AF_DataRequest                0      0     90
       -> osal_msg_deallocate           0      0     72
       -> osal_msg_receive              0      0     72
       -> ZDO_ParseEPListRsp            0      0     72
       -> HalLedSet                     0      0     72
       -> osal_mem_free                 0      0     72
       -> HalLedSet                     0      0     72
       -> HalLedSet                     0      0     72
       -> HalLedSet                     0      0     72
       -> NLME_GetShortAddr             0      0     72
       -> ZDP_EndDeviceBindReq          0      0     90
       -> HalLedSet                     0      0     72
       -> ZDP_MatchDescReq              0      0     88
       -> SwitchTestApp_MessageMSGCB
                                        0      0     72
       -> osal_strlen                   0      0     82
       -> AF_DataRequest                0      0     90
       -> osal_start_timerEx            0      0     72


   Segment part sizes:

     Function/Label                       Bytes
     --------------                       -----
     _A_P1                                   1
     P1DIR                                   1
     CodRecv_AFBuf                          16
     CodSend_AFBuf                          16
     SerialApp_RxBuf                       254
     SwitchTestApp_ClusterList               2
     SwitchTestApp_SimpleDesc               12
     SwitchTestApp_epDesc                    6
     SwitchTestApp_TaskID                    1
     SwitchTestApp_NwkState                  1
     SwitchTestApp_TransID                   1
     SwitchTestApp_DstAddr                  12
     Init_Port                              13
     SwitchTestApp_Init                    196
     ?Subroutine1                            8
     SwitchTestApp_ProcessEvent            861
     ?Subroutine0                            5
     ?Subroutine7                            8
     SwitchTestApp_MessageMSGCB            287
     ??Subroutine8_0                         8
     ?Subroutine5                           14
     ?Subroutine4                           14
     ?Subroutine3                           14
     ?Subroutine2                           14
     SerialApp_CallBack                    145
     ?Subroutine6                            8
     ??Init_Port?relay                       6
     ??SwitchTestApp_Init?relay              6
     ??SwitchTestApp_ProcessEvent?relay      6
     ??SwitchTestApp_MessageMSGCB?relay      6
     ??SerialApp_CallBack?relay              6
     ?<Constant "SwitchTestApp">            14
     ?<Constant ">>Router LINK State <<">   23
     ?<Constant ">>Router LINK State ">     21
     ?<Constant "&&OPENLED1<<">             13
     ?<Constant "open led 1">               11
     ?<Constant "&&OPENLED2<<">             13
     ?<Constant "open led 2">               11
     ?<Constant "&&CLOSELED1<<">            14
     ?<Constant "Close led 1">              12
     ?<Constant "&&CLOSELED2<<">            14
     ?<Constant "Close led 2">              12
     ?<Constant "rcvd">                      5
     ?<Constant "Hello World">              12
     ?<Constant "&&ROUTER_LINK<<">          16

 
 1 595 bytes in segment BANKED_CODE
    30 bytes in segment BANK_RELAYS
     2 bytes in segment SFR_AN
   205 bytes in segment XDATA_ROM_C
   307 bytes in segment XDATA_Z
 
 1 625 bytes of CODE  memory
   205 bytes of CONST memory
     0 bytes of DATA  memory (+ 2 bytes shared)
   307 bytes of XDATA memory

Errors: none
Warnings: 2
