###############################################################################
#                                                                             #
# IAR C/C++ Compiler V8.10.3.10338/W32 for 8051         05/Apr/2017  00:44:34 #
# Copyright 2004-2011 IAR Systems AB.                                         #
#                                                                             #
#    Core               =  plain                                              #
#    Code model         =  banked                                             #
#    Data model         =  large                                              #
#    Calling convention =  xdata reentrant                                    #
#    Constant location  =  data_rom                                           #
#    Dptr setup         =  1,16                                               #
#    Source file        =  C:\Texas Instruments\ZStack-CC2530-2.5.1a\Projects #
#                          \zstack\Samples\SwitchTestApp\Source\SwitchTestApp #
#                          Coord.c                                            #
#    Command line       =  -f "C:\Texas Instruments\ZStack-CC2530-2.5.1a\Proj #
#                          ects\zstack\Samples\SwitchTestApp\CC2530DB\..\..\. #
#                          .\Tools\CC2530DB\f8wCoord.cfg" (-DCPU32MHZ         #
#                          -DROOT=__near_func -DMAC_CFG_APP_PENDING_QUEUE=TRU #
#                          E -DMAC_CFG_TX_DATA_MAX=5 -DMAC_CFG_TX_MAX=8       #
#                          -DMAC_CFG_RX_MAX=5 -DZDO_COORDINATOR -DRTR_NWK)    #
#                          -f "C:\Texas Instruments\ZStack-CC2530-2.5.1a\Proj #
#                          ects\zstack\Samples\SwitchTestApp\CC2530DB\..\..\. #
#                          .\Tools\CC2530DB\f8wConfig.cfg" (-DZIGBEEPRO       #
#                          -DSECURE=0 -DZG_SECURE_DYNAMIC=0 -DREFLECTOR       #
#                          -DDEFAULT_CHANLIST=0x00000800                      #
#                          -DZDAPP_CONFIG_PAN_ID=0xFFFF                       #
#                          -DNWK_START_DELAY=100 -DEXTENDED_JOINING_RANDOM_MA #
#                          SK=0x007F -DBEACON_REQUEST_DELAY=100               #
#                          -DBEACON_REQ_DELAY_MASK=0x00FF                     #
#                          -DLINK_STATUS_JITTER_MASK=0x007F                   #
#                          -DROUTE_EXPIRY_TIME=30 -DAPSC_ACK_WAIT_DURATION_PO #
#                          LLED=3000 -DNWK_INDIRECT_MSG_TIMEOUT=7             #
#                          -DMAX_RREQ_ENTRIES=8 -DAPSC_MAX_FRAME_RETRIES=3    #
#                          -DNWK_MAX_DATA_RETRIES=2                           #
#                          -DMAX_POLL_FAILURE_RETRIES=2 -DMAX_BCAST=9         #
#                          -DAPS_MAX_GROUPS=16 -DMAX_RTG_ENTRIES=40           #
#                          -DNWK_MAX_BINDING_ENTRIES=4                        #
#                          -DMAX_BINDING_CLUSTER_IDS=4 "-DDEFAULT_KEY={0x01,  #
#                          0x03, 0x05, 0x07, 0x09, 0x0B, 0x0D, 0x0F, 0x00,    #
#                          0x02, 0x04, 0x06, 0x08, 0x0A, 0x0C, 0x0D}"         #
#                          -DMAC_MAX_FRAME_SIZE=116                           #
#                          -DZDNWKMGR_MIN_TRANSMISSIONS=20 "-DCONST=const     #
#                          __code" -DGENERIC=__generic                        #
#                          -DRFD_RCVC_ALWAYS_ON=FALSE -DPOLL_RATE=1000        #
#                          -DQUEUED_POLL_RATE=100 -DRESPONSE_POLL_RATE=100)   #
#                          -DREJOIN_POLL_RATE=440 "C:\Texas                   #
#                          Instruments\ZStack-CC2530-2.5.1a\Projects\zstack\S #
#                          amples\SwitchTestApp\Source\SwitchTestAppCoord.c"  #
#                          -D ZTOOL_P1 -D MT_TASK -D MT_SYS_FUNC -D           #
#                          MT_ZDO_FUNC -D LCD_SUPPORTED=DEBUG -lC "C:\Texas   #
#                          Instruments\ZStack-CC2530-2.5.1a\Projects\zstack\S #
#                          amples\SwitchTestApp\CC2530DB\CoordinatorEB\List\" #
#                           -lA "C:\Texas Instruments\ZStack-CC2530-2.5.1a\Pr #
#                          ojects\zstack\Samples\SwitchTestApp\CC2530DB\Coord #
#                          inatorEB\List\" --diag_suppress Pe001,Pa010 -o     #
#                          "C:\Texas Instruments\ZStack-CC2530-2.5.1a\Project #
#                          s\zstack\Samples\SwitchTestApp\CC2530DB\Coordinato #
#                          rEB\Obj\" -e --no_code_motion --debug              #
#                          --core=plain --dptr=16,1 --data_model=large        #
#                          --code_model=banked --calling_convention=xdata_ree #
#                          ntrant --place_constants=data_rom                  #
#                          --nr_virtual_regs 16 -I "C:\Texas                  #
#                          Instruments\ZStack-CC2530-2.5.1a\Projects\zstack\S #
#                          amples\SwitchTestApp\CC2530DB\" -I "C:\Texas       #
#                          Instruments\ZStack-CC2530-2.5.1a\Projects\zstack\S #
#                          amples\SwitchTestApp\CC2530DB\..\Source\" -I       #
#                          "C:\Texas Instruments\ZStack-CC2530-2.5.1a\Project #
#                          s\zstack\Samples\SwitchTestApp\CC2530DB\..\..\..\Z #
#                          Main\TI2530DB\" -I "C:\Texas                       #
#                          Instruments\ZStack-CC2530-2.5.1a\Projects\zstack\S #
#                          amples\SwitchTestApp\CC2530DB\..\..\..\..\..\Compo #
#                          nents\hal\include\" -I "C:\Texas                   #
#                          Instruments\ZStack-CC2530-2.5.1a\Projects\zstack\S #
#                          amples\SwitchTestApp\CC2530DB\..\..\..\..\..\Compo #
#                          nents\hal\target\CC2530EB\" -I "C:\Texas           #
#                          Instruments\ZStack-CC2530-2.5.1a\Projects\zstack\S #
#                          amples\SwitchTestApp\CC2530DB\..\..\..\..\..\Compo #
#                          nents\mac\include\" -I "C:\Texas                   #
#                          Instruments\ZStack-CC2530-2.5.1a\Projects\zstack\S #
#                          amples\SwitchTestApp\CC2530DB\..\..\..\..\..\Compo #
#                          nents\mac\high_level\" -I "C:\Texas                #
#                          Instruments\ZStack-CC2530-2.5.1a\Projects\zstack\S #
#                          amples\SwitchTestApp\CC2530DB\..\..\..\..\..\Compo #
#                          nents\mac\low_level\srf04\" -I "C:\Texas           #
#                          Instruments\ZStack-CC2530-2.5.1a\Projects\zstack\S #
#                          amples\SwitchTestApp\CC2530DB\..\..\..\..\..\Compo #
#                          nents\mac\low_level\srf04\single_chip\" -I         #
#                          "C:\Texas Instruments\ZStack-CC2530-2.5.1a\Project #
#                          s\zstack\Samples\SwitchTestApp\CC2530DB\..\..\..\. #
#                          .\..\Components\mt\" -I "C:\Texas                  #
#                          Instruments\ZStack-CC2530-2.5.1a\Projects\zstack\S #
#                          amples\SwitchTestApp\CC2530DB\..\..\..\..\..\Compo #
#                          nents\osal\include\" -I "C:\Texas                  #
#                          Instruments\ZStack-CC2530-2.5.1a\Projects\zstack\S #
#                          amples\SwitchTestApp\CC2530DB\..\..\..\..\..\Compo #
#                          nents\services\saddr\" -I "C:\Texas                #
#                          Instruments\ZStack-CC2530-2.5.1a\Projects\zstack\S #
#                          amples\SwitchTestApp\CC2530DB\..\..\..\..\..\Compo #
#                          nents\services\sdata\" -I "C:\Texas                #
#                          Instruments\ZStack-CC2530-2.5.1a\Projects\zstack\S #
#                          amples\SwitchTestApp\CC2530DB\..\..\..\..\..\Compo #
#                          nents\stack\af\" -I "C:\Texas                      #
#                          Instruments\ZStack-CC2530-2.5.1a\Projects\zstack\S #
#                          amples\SwitchTestApp\CC2530DB\..\..\..\..\..\Compo #
#                          nents\stack\nwk\" -I "C:\Texas                     #
#                          Instruments\ZStack-CC2530-2.5.1a\Projects\zstack\S #
#                          amples\SwitchTestApp\CC2530DB\..\..\..\..\..\Compo #
#                          nents\stack\sapi\" -I "C:\Texas                    #
#                          Instruments\ZStack-CC2530-2.5.1a\Projects\zstack\S #
#                          amples\SwitchTestApp\CC2530DB\..\..\..\..\..\Compo #
#                          nents\stack\sec\" -I "C:\Texas                     #
#                          Instruments\ZStack-CC2530-2.5.1a\Projects\zstack\S #
#                          amples\SwitchTestApp\CC2530DB\..\..\..\..\..\Compo #
#                          nents\stack\sys\" -I "C:\Texas                     #
#                          Instruments\ZStack-CC2530-2.5.1a\Projects\zstack\S #
#                          amples\SwitchTestApp\CC2530DB\..\..\..\..\..\Compo #
#                          nents\stack\zdo\" -I "C:\Texas                     #
#                          Instruments\ZStack-CC2530-2.5.1a\Projects\zstack\S #
#                          amples\SwitchTestApp\CC2530DB\..\..\..\..\..\Compo #
#                          nents\zmac\" -I "C:\Texas                          #
#                          Instruments\ZStack-CC2530-2.5.1a\Projects\zstack\S #
#                          amples\SwitchTestApp\CC2530DB\..\..\..\..\..\Compo #
#                          nents\zmac\f8w\" -Ohz --require_prototypes         #
#    List file          =  C:\Texas Instruments\ZStack-CC2530-2.5.1a\Projects #
#                          \zstack\Samples\SwitchTestApp\CC2530DB\Coordinator #
#                          EB\List\SwitchTestAppCoord.lst                     #
#    Object file        =  C:\Texas Instruments\ZStack-CC2530-2.5.1a\Projects #
#                          \zstack\Samples\SwitchTestApp\CC2530DB\Coordinator #
#                          EB\Obj\SwitchTestAppCoord.r51                      #
#                                                                             #
#                                                                             #
###############################################################################

C:\Texas Instruments\ZStack-CC2530-2.5.1a\Projects\zstack\Samples\SwitchTestApp\Source\SwitchTestAppCoord.c
      1          /******************************************************************************
      2            Filename:       SwitchTestApp.c
      3            Revised:        $Date: 2012-03-07 01:04:58 -0800 (Wed, 07 Mar 2012) $
      4            Revision:       $Revision: 29656 $
      5          
      6            Description:    Generic Application (no Profile).
      7          
      8          
      9            Copyright 2004-2012 Texas Instruments Incorporated. All rights reserved.
     10          
     11            IMPORTANT: Your use of this Software is limited to those specific rights
     12            granted under the terms of a software license agreement between the user
     13            who downloaded the software, his/her employer (which must be your employer)
     14            and Texas Instruments Incorporated (the "License"). You may not use this
     15            Software unless you agree to abide by the terms of the License. The License
     16            limits your use, and you acknowledge, that the Software may not be modified,
     17            copied or distributed unless embedded on a Texas Instruments microcontroller
     18            or used solely and exclusively in conjunction with a Texas Instruments radio
     19            frequency transceiver, which is integrated into your product. Other than for
     20            the foregoing purpose, you may not use, reproduce, copy, prepare derivative
     21            works of, modify, distribute, perform, display or sell this Software and/or
     22            its documentation for any purpose.
     23          
     24            YOU FURTHER ACKNOWLEDGE AND AGREE THAT THE SOFTWARE AND DOCUMENTATION ARE
     25            PROVIDED AS IS?WITHOUT WARRANTY OF ANY KIND, EITHER EXPRESS OR IMPLIED,
     26            INCLUDING WITHOUT LIMITATION, ANY WARRANTY OF MERCHANTABILITY, TITLE,
     27            NON-INFRINGEMENT AND FITNESS FOR A PARTICULAR PURPOSE. IN NO EVENT SHALL
     28            TEXAS INSTRUMENTS OR ITS LICENSORS BE LIABLE OR OBLIGATED UNDER CONTRACT,
     29            NEGLIGENCE, STRICT LIABILITY, CONTRIBUTION, BREACH OF WARRANTY, OR OTHER
     30            LEGAL EQUITABLE THEORY ANY DIRECT OR INDIRECT DAMAGES OR EXPENSES
     31            INCLUDING BUT NOT LIMITED TO ANY INCIDENTAL, SPECIAL, INDIRECT, PUNITIVE
     32            OR CONSEQUENTIAL DAMAGES, LOST PROFITS OR LOST DATA, COST OF PROCUREMENT
     33            OF SUBSTITUTE GOODS, TECHNOLOGY, SERVICES, OR ANY CLAIMS BY THIRD PARTIES
     34            (INCLUDING BUT NOT LIMITED TO ANY DEFENSE THEREOF), OR OTHER SIMILAR COSTS.
     35          
     36            Should you have any questions regarding your right to use this Software,
     37            contact Texas Instruments Incorporated at www.TI.com.
     38          ******************************************************************************/
     39          
     40          /*********************************************************************
     41            This application isn't intended to do anything useful, it is
     42            intended to be a simple example of an application's structure.
     43          
     44            This application sends "Hello World" to another "Generic"
     45            application every 5 seconds.  The application will also
     46            receives "Hello World" packets.
     47          
     48            The "Hello World" messages are sent/received as MSG type message.
     49          
     50            This applications doesn't have a profile, so it handles everything
     51            directly - itself.
     52          
     53            Key control:
     54              SW1:
     55              SW2:  initiates end device binding
     56              SW3:
     57              SW4:  initiates a match description request
     58          *********************************************************************/
     59          
     60          /*********************************************************************
     61           * INCLUDES
     62           */
     63          #include "OSAL.h"
     64          #include "AF.h"
     65          #include "ZDApp.h"
     66          #include "ZDObject.h"
     67          #include "ZDProfile.h"
     68          
     69          #include "SwitchTestAppCoord.h"
     70          #include "DebugTrace.h"
     71          
     72          #if !defined( WIN32 )
     73            #include "OnBoard.h"
     74          #endif
     75          
     76          /* HAL */
     77          #include "hal_lcd.h"
     78          #include "hal_led.h"
     79          #include "hal_key.h"
     80          #include "hal_uart.h"
     81          
     82          /* RTOS */
     83          #if defined( IAR_ARMCM3_LM )
     84          #include "RTOS_App.h"
     85          #endif  
     86          
     87          /*********************************************************************
     88           * MACROS
     89           */
     90          
     91          /*********************************************************************
     92           * CONSTANTS
     93           */
     94          
     95          /*********************************************************************
     96           * TYPEDEFS
     97           */
     98          
     99          /*********************************************************************
    100           * GLOBAL VARIABLES
    101           */
    102          // This list should be filled with Application specific Cluster IDs.

   \                                 In  segment XDATA_ROM_C, align 1
    103          const cId_t SwitchTestApp_ClusterList[SwitchTestApp_MAX_CLUSTERS] =
   \                     SwitchTestApp_ClusterList:
   \   000000   0100         DW 1
    104          {
    105            SwitchTestApp_CLUSTERID
    106          };
    107          

   \                                 In  segment XDATA_ROM_C, align 1
    108          const SimpleDescriptionFormat_t SwitchTestApp_SimpleDesc =
   \                     SwitchTestApp_SimpleDesc:
   \   000000   0A           DB 10
   \   000001   040F         DW 3844
   \   000003   0100         DW 1
   \   000005   00           DB 0
   \   000006   01           DB 1
   \   000007   ....         DW SwitchTestApp_ClusterList
   \   000009   01           DB 1
   \   00000A   ....         DW SwitchTestApp_ClusterList
    109          {
    110            SwitchTestApp_ENDPOINT,              //  int Endpoint;
    111            SwitchTestApp_PROFID,                //  uint16 AppProfId[2];
    112            SwitchTestApp_DEVICEID,              //  uint16 AppDeviceId[2];
    113            SwitchTestApp_DEVICE_VERSION,        //  int   AppDevVer:4;
    114            SwitchTestApp_FLAGS,                 //  int   AppFlags:4;
    115            SwitchTestApp_MAX_CLUSTERS,          //  byte  AppNumInClusters;
    116            (cId_t *)SwitchTestApp_ClusterList,  //  byte *pAppInClusterList;
    117            SwitchTestApp_MAX_CLUSTERS,          //  byte  AppNumInClusters;
    118            (cId_t *)SwitchTestApp_ClusterList   //  byte *pAppInClusterList;
    119          };
    120          
    121          // This is the Endpoint/Interface description.  It is defined here, but
    122          // filled-in in SwitchTestApp_Init().  Another way to go would be to fill
    123          // in the structure here and make it a "const" (in code space).  The
    124          // way it's defined in this sample app it is define in RAM.

   \                                 In  segment XDATA_Z, align 1, keep-with-next
    125          endPointDesc_t SwitchTestApp_epDesc;
   \                     SwitchTestApp_epDesc:
   \   000000                DS 6
   \   000006                REQUIRE __INIT_XDATA_Z
    126          
    127          /*********************************************************************
    128           * EXTERNAL VARIABLES
    129           */
    130          
    131          /*********************************************************************
    132           * EXTERNAL FUNCTIONS
    133           */
    134          
    135          /*********************************************************************
    136           * LOCAL VARIABLES
    137           */

   \                                 In  segment XDATA_Z, align 1, keep-with-next
    138          byte SwitchTestApp_TaskID;   // Task ID for internal task/event processing
   \                     SwitchTestApp_TaskID:
   \   000000                DS 1
   \   000001                REQUIRE __INIT_XDATA_Z
    139                                    // This variable will be received when
    140                                    // SwitchTestApp_Init() is called.

   \                                 In  segment XDATA_Z, align 1, keep-with-next
    141          devStates_t SwitchTestApp_NwkState;
   \                     SwitchTestApp_NwkState:
   \   000000                DS 1
   \   000001                REQUIRE __INIT_XDATA_Z
    142          
    143          

   \                                 In  segment XDATA_Z, align 1, keep-with-next
    144          byte SwitchTestApp_TransID;  // This is the unique message ID (counter)
   \                     SwitchTestApp_TransID:
   \   000000                DS 1
   \   000001                REQUIRE __INIT_XDATA_Z
    145          

   \                                 In  segment XDATA_Z, align 1, keep-with-next
    146          afAddrType_t SwitchTestApp_DstAddr;
   \                     SwitchTestApp_DstAddr:
   \   000000                DS 12
   \   00000C                REQUIRE __INIT_XDATA_Z
    147          
    148          //static afAddrType_t SerialApp_TxAddr;
    149          //static uint8 SerialApp_TxSeq;
    150          //static uint8 SerialApp_TxBuf[SERIAL_APP_TX_MAX+1];
    151          //static uint8 SerialApp_TxLen;
    152          
    153          //static afAddrType_t SerialApp_RxAddr;
    154          //static uint8 SerialApp_RxSeq;

   \                                 In  segment XDATA_Z, align 1, keep-with-next
    155          static uint8 SerialApp_RxBuf[SERIAL_APP_RSP_CNT];
   \                     SerialApp_RxBuf:
   \   000000                DS 254
   \   0000FE                REQUIRE __INIT_XDATA_Z
    156          
    157          //定义一个路由节点的

   \                                 In  segment XDATA_Z, align 1, keep-with-next
    158          static afAddrType_t SwitchRouterAddr;
   \                     SwitchRouterAddr:
   \   000000                DS 12
   \   00000C                REQUIRE __INIT_XDATA_Z

   \                                 In  segment XDATA_Z, align 1, keep-with-next
    159          static uint8  routerLinkState = FALSE;
   \                     routerLinkState:
   \   000000                DS 1
   \   000001                REQUIRE __INIT_XDATA_Z
    160          
    161          //无线数据收发 
    162          #define AF_TXRX_DATA_LEN  16  //&&开头 >>end 10 字符
    163          

   \                                 In  segment XDATA_Z, align 1, keep-with-next
    164          static uint8 CodRecv_AFBuf[AF_TXRX_DATA_LEN];
   \                     CodRecv_AFBuf:
   \   000000                DS 16
   \   000010                REQUIRE __INIT_XDATA_Z

   \                                 In  segment XDATA_Z, align 1, keep-with-next
    165          static uint8 CodSend_AFBuf[AF_TXRX_DATA_LEN];
   \                     CodSend_AFBuf:
   \   000000                DS 16
   \   000010                REQUIRE __INIT_XDATA_Z
    166          
    167          /*********************************************************************
    168           * LOCAL FUNCTIONS
    169           */
    170          void FSetAddrMode(afAddrType_t *pAddr,afAddrMode_t Mode);
    171          void FSetEndPoint(afAddrType_t *pAddr,uint8  endPoint);
    172          void FSetShortAddr(afAddrType_t *pAddr,uint16 shtAddr);
    173          void FuncSetDstAddrInfo(afAddrType_t *pAddr, afAddrMode_t Mode,uint8  endPoint,uint16 shtAddr);
    174          static void SwitchTestApp_ProcessZDOMsgs( zdoIncomingMsg_t *inMsg );
    175          static void SwitchTestApp_HandleKeys( byte shift, byte keys );
    176          static void SwitchTestApp_MessageMSGCB( afIncomingMSGPacket_t *pckt );
    177          static void SwitchTestApp_SendTheMessage( void );
    178          static void Switch_SendMsgToRouter( void );
    179          
    180          static void SerialApp_CallBack(uint8 port, uint8 event);
    181          
    182          #if defined( IAR_ARMCM3_LM )
    183          static void SwitchTestApp_ProcessRtosMessage( void );
    184          #endif
    185          
    186          /*********************************************************************
    187           * NETWORK LAYER CALLBACKS
    188           */
    189          
    190          /*********************************************************************
    191           * PUBLIC FUNCTIONS
    192           */
    193          

   \                                 In  segment BANKED_CODE, align 1, keep-with-next
    194          void FSetAddrMode(afAddrType_t *pAddr,afAddrMode_t Mode)
   \                     FSetAddrMode:
    195          {
   \   000000   C082         PUSH    DPL
   \   000002   C083         PUSH    DPH
   \   000004                ; Saved register size: 2
   \   000004                ; Auto size: 0
    196               pAddr->addrMode = (afAddrMode_t)Mode;
   \   000004   E9           MOV     A,R1
   \   000005   8A82         MOV     DPL,R2
   \   000007   8B83         MOV     DPH,R3
   \   000009                REQUIRE ?Subroutine0
   \   000009                ; // Fall through to label ?Subroutine0
    197          }

   \                                 In  segment BANKED_CODE, align 1, keep-with-next
   \                     ?Subroutine0:
   \   000000   A3           INC     DPTR
   \   000001   A3           INC     DPTR
   \   000002   A3           INC     DPTR
   \   000003   A3           INC     DPTR
   \   000004   A3           INC     DPTR
   \   000005   A3           INC     DPTR
   \   000006   A3           INC     DPTR
   \   000007   A3           INC     DPTR
   \   000008                REQUIRE ??Subroutine9_0
   \   000008                ; // Fall through to label ??Subroutine9_0

   \                                 In  segment BANKED_CODE, align 1, keep-with-next
   \                     ??Subroutine9_0:
   \   000000   F0           MOVX    @DPTR,A
   \   000001   D083         POP     DPH
   \   000003   D082         POP     DPL
   \   000005   02....       LJMP    ?BRET

   \                                 In  segment BANKED_CODE, align 1, keep-with-next
    198          void FSetEndPoint(afAddrType_t *pAddr,uint8  endPoint)
   \                     FSetEndPoint:
    199          {
   \   000000   C082         PUSH    DPL
   \   000002   C083         PUSH    DPH
   \   000004                ; Saved register size: 2
   \   000004                ; Auto size: 0
    200               pAddr->endPoint = endPoint;
   \   000004   E9           MOV     A,R1
   \   000005   8A82         MOV     DPL,R2
   \   000007   8B83         MOV     DPH,R3
   \   000009   A3           INC     DPTR
   \   00000A   80..         SJMP    ?Subroutine0
    201          }

   \                                 In  segment BANKED_CODE, align 1, keep-with-next
    202          void FSetShortAddr(afAddrType_t *pAddr,uint16 shtAddr)
   \                     FSetShortAddr:
    203          {
   \   000000   C082         PUSH    DPL
   \   000002   C083         PUSH    DPH
   \   000004                ; Saved register size: 2
   \   000004                ; Auto size: 0
    204               pAddr->addr.shortAddr = shtAddr;
   \   000004   8A82         MOV     DPL,R2
   \   000006   8B83         MOV     DPH,R3
   \   000008   EC           MOV     A,R4
   \   000009   F0           MOVX    @DPTR,A
   \   00000A   A3           INC     DPTR
   \   00000B   ED           MOV     A,R5
   \   00000C   80..         SJMP    ??Subroutine9_0
    205          }
    206          

   \                                 In  segment BANKED_CODE, align 1, keep-with-next
    207          void FuncSetDstAddrInfo(afAddrType_t *pAddr,
   \                     FuncSetDstAddrInfo:
    208                                  afAddrMode_t Mode,
    209                                  uint8  endPoint,
    210                                  uint16 shtAddr)
    211          {
   \   000000   74F7         MOV     A,#-0x9
   \   000002   12....       LCALL   ?BANKED_ENTER_XDATA
   \   000005                ; Saved register size: 9
   \   000005                ; Auto size: 0
   \   000005   7409         MOV     A,#0x9
   \   000007   12....       LCALL   ?XSTACK_DISP0_8
   \   00000A   E0           MOVX    A,@DPTR
   \   00000B   FE           MOV     R6,A
   \   00000C   A3           INC     DPTR
   \   00000D   E0           MOVX    A,@DPTR
   \   00000E   FF           MOV     R7,A
    212            //SwitchTestApp_DstAddr.addrMode = (afAddrMode_t)AddrNotPresent;
    213            //SwitchTestApp_DstAddr.endPoint = 0;
    214            //SwitchTestApp_DstAddr.addr.shortAddr = 0;
    215              pAddr->addrMode = (afAddrMode_t)Mode;
   \   00000F   E9           MOV     A,R1
   \   000010   8A82         MOV     DPL,R2
   \   000012   8B83         MOV     DPH,R3
   \   000014   A3           INC     DPTR
   \   000015   A3           INC     DPTR
   \   000016   A3           INC     DPTR
   \   000017   A3           INC     DPTR
   \   000018   A3           INC     DPTR
   \   000019   A3           INC     DPTR
   \   00001A   A3           INC     DPTR
   \   00001B   A3           INC     DPTR
   \   00001C   F0           MOVX    @DPTR,A
    216              pAddr->endPoint = endPoint;
   \   00001D   EC           MOV     A,R4
   \   00001E   8A82         MOV     DPL,R2
   \   000020   8B83         MOV     DPH,R3
   \   000022   A3           INC     DPTR
   \   000023   A3           INC     DPTR
   \   000024   A3           INC     DPTR
   \   000025   A3           INC     DPTR
   \   000026   A3           INC     DPTR
   \   000027   A3           INC     DPTR
   \   000028   A3           INC     DPTR
   \   000029   A3           INC     DPTR
   \   00002A   A3           INC     DPTR
   \   00002B   F0           MOVX    @DPTR,A
    217              pAddr->addr.shortAddr = shtAddr;
   \   00002C   8A82         MOV     DPL,R2
   \   00002E   8B83         MOV     DPH,R3
   \   000030   EE           MOV     A,R6
   \   000031   F0           MOVX    @DPTR,A
   \   000032   A3           INC     DPTR
   \   000033   EF           MOV     A,R7
   \   000034   F0           MOVX    @DPTR,A
    218          }
   \   000035                REQUIRE ?Subroutine1
   \   000035                ; // Fall through to label ?Subroutine1

   \                                 In  segment BANKED_CODE, align 1, keep-with-next
   \                     ?Subroutine1:
   \   000000   7F01         MOV     R7,#0x1
   \   000002   02....       LJMP    ?BANKED_LEAVE_XDATA
    219          /*********************************************************************
    220           * @fn      SwitchTestApp_Init
    221           *
    222           * @brief   Initialization function for the Generic App Task.
    223           *          This is called during initialization and should contain
    224           *          any application specific initialization (ie. hardware
    225           *          initialization/setup, table initialization, power up
    226           *          notificaiton ... ).
    227           *
    228           * @param   task_id - the ID assigned by OSAL.  This ID should be
    229           *                    used to send messages and set timers.
    230           *
    231           * @return  none
    232           */

   \                                 In  segment BANKED_CODE, align 1, keep-with-next
    233          void SwitchTestApp_Init( uint8 task_id )
   \                     SwitchTestApp_Init:
    234          {
   \   000000   74F7         MOV     A,#-0x9
   \   000002   12....       LCALL   ?BANKED_ENTER_XDATA
   \   000005                ; Saved register size: 9
   \   000005                ; Auto size: 29
   \   000005   74E3         MOV     A,#-0x1d
   \   000007   12....       LCALL   ?ALLOC_XSTACK8
   \   00000A   E9           MOV     A,R1
    235            halUARTCfg_t uartConfig;
    236            
    237            SwitchTestApp_TaskID = task_id;
   \   00000B   90....       MOV     DPTR,#SwitchTestApp_TaskID
   \   00000E   F0           MOVX    @DPTR,A
    238            SwitchTestApp_NwkState = DEV_INIT;
   \   00000F   90....       MOV     DPTR,#SwitchTestApp_NwkState
   \   000012   7401         MOV     A,#0x1
   \   000014   F0           MOVX    @DPTR,A
    239            SwitchTestApp_TransID = 0;
   \   000015   90....       MOV     DPTR,#SwitchTestApp_TransID
   \   000018   E4           CLR     A
   \   000019   F0           MOVX    @DPTR,A
    240          
    241            // Device hardware initialization can be added here or in main() (Zmain.c).
    242            // If the hardware is application specific - add it here.
    243            // If the hardware is other parts of the device add it in main().
    244          
    245            //SwitchTestApp_DstAddr.addrMode = (afAddrMode_t)AddrNotPresent;
    246            //SwitchTestApp_DstAddr.endPoint = 0;
    247            //SwitchTestApp_DstAddr.addr.shortAddr = 0;
    248          
    249            // Fill out the endpoint description.
    250            SwitchTestApp_epDesc.endPoint = SwitchTestApp_ENDPOINT;
   \   00001A   90....       MOV     DPTR,#SwitchTestApp_epDesc
   \   00001D   740A         MOV     A,#0xa
   \   00001F   F0           MOVX    @DPTR,A
    251            SwitchTestApp_epDesc.task_id = &SwitchTestApp_TaskID;
   \   000020   A3           INC     DPTR
   \   000021   74..         MOV     A,#SwitchTestApp_TaskID & 0xff
   \   000023   F0           MOVX    @DPTR,A
   \   000024   A3           INC     DPTR
   \   000025   74..         MOV     A,#(SwitchTestApp_TaskID >> 8) & 0xff
   \   000027   F0           MOVX    @DPTR,A
    252            SwitchTestApp_epDesc.simpleDesc
    253                      = (SimpleDescriptionFormat_t *)&SwitchTestApp_SimpleDesc;
   \   000028   A3           INC     DPTR
   \   000029   74..         MOV     A,#SwitchTestApp_SimpleDesc & 0xff
   \   00002B   F0           MOVX    @DPTR,A
   \   00002C   A3           INC     DPTR
   \   00002D   74..         MOV     A,#(SwitchTestApp_SimpleDesc >> 8) & 0xff
   \   00002F   F0           MOVX    @DPTR,A
    254            SwitchTestApp_epDesc.latencyReq = noLatencyReqs;
   \   000030   A3           INC     DPTR
   \   000031   E4           CLR     A
   \   000032   F0           MOVX    @DPTR,A
    255          
    256            // Register the endpoint description with the AF
    257            afRegister( &SwitchTestApp_epDesc );
   \   000033                ; Setup parameters for call to function afRegister
   \   000033   7A..         MOV     R2,#SwitchTestApp_epDesc & 0xff
   \   000035   7B..         MOV     R3,#(SwitchTestApp_epDesc >> 8) & 0xff
   \   000037   12....       LCALL   ??afRegister?relay
    258          
    259            // Register for all key events - This app will handle all key events
    260            RegisterForKeys( SwitchTestApp_TaskID );
   \   00003A                ; Setup parameters for call to function RegisterForKeys
   \   00003A   90....       MOV     DPTR,#SwitchTestApp_TaskID
   \   00003D   E0           MOVX    A,@DPTR
   \   00003E   F9           MOV     R1,A
   \   00003F   12....       LCALL   ??RegisterForKeys?relay
    261             
    262            //uart 0 init
    263            uartConfig.configured           = TRUE;              // 2x30 don't care - see uart driver.
   \   000042   85..82       MOV     DPL,?XSP + 0
   \   000045   85..83       MOV     DPH,?XSP + 1
   \   000048   7401         MOV     A,#0x1
   \   00004A   F0           MOVX    @DPTR,A
    264            uartConfig.baudRate             = HAL_UART_BR_9600;
   \   00004B   12....       LCALL   ?XSTACK_DISP0_8
   \   00004E   E4           CLR     A
   \   00004F   F0           MOVX    @DPTR,A
    265            uartConfig.flowControl          = FALSE;
   \   000050   7402         MOV     A,#0x2
   \   000052   12....       LCALL   ?XSTACK_DISP0_8
   \   000055   E4           CLR     A
   \   000056   F0           MOVX    @DPTR,A
    266            //uartConfig.flowControlThreshold = SERIAL_APP_THRESH; // 2x30 don't care - see uart driver.
    267            uartConfig.rx.maxBufSize        = 256;  // 2x30 don't care - see uart driver.
   \   000057   740A         MOV     A,#0xa
   \   000059   12....       LCALL   ?XSTACK_DISP0_8
   \   00005C   E4           CLR     A
   \   00005D   F0           MOVX    @DPTR,A
   \   00005E   A3           INC     DPTR
   \   00005F   04           INC     A
   \   000060   F0           MOVX    @DPTR,A
    268            uartConfig.tx.maxBufSize        = 256;  // 2x30 don't care - see uart driver.
   \   000061   7412         MOV     A,#0x12
   \   000063   12....       LCALL   ?XSTACK_DISP0_8
   \   000066   E4           CLR     A
   \   000067   F0           MOVX    @DPTR,A
   \   000068   A3           INC     DPTR
   \   000069   04           INC     A
   \   00006A   F0           MOVX    @DPTR,A
    269            uartConfig.idleTimeout          = 100;   // 2x30 don't care - see uart driver.
   \   00006B   7405         MOV     A,#0x5
   \   00006D   12....       LCALL   ?XSTACK_DISP0_8
   \   000070   7464         MOV     A,#0x64
   \   000072   F0           MOVX    @DPTR,A
    270            //uartConfig.intEnable            = TRUE;              // 2x30 don't care - see uart driver.
    271            uartConfig.callBackFunc         = SerialApp_CallBack;
   \   000073   741B         MOV     A,#0x1b
   \   000075   12....       LCALL   ?XSTACK_DISP0_8
   \   000078   74..         MOV     A,#??SerialApp_CallBack?relay & 0xff
   \   00007A   F0           MOVX    @DPTR,A
   \   00007B   A3           INC     DPTR
   \   00007C   74..         MOV     A,#(??SerialApp_CallBack?relay >> 8) & 0xff
   \   00007E   12....       LCALL   ?Subroutine6 & 0xFFFF
    272            HalUARTOpen (HAL_UART_PORT_0, &uartConfig);
   \                     ??CrossCallReturnLabel_9:
   \   000081   AA82         MOV     R2,DPL
   \   000083   AB83         MOV     R3,DPH
   \   000085   7900         MOV     R1,#0x0
   \   000087   12....       LCALL   ??HalUARTOpen?relay
    273            
    274            // Update the display
    275          #if defined ( LCD_SUPPORTED )
    276            HalLcdWriteString( "SwitchTestApp", HAL_LCD_LINE_1 );
   \   00008A                ; Setup parameters for call to function HalLcdWriteString
   \   00008A   7901         MOV     R1,#0x1
   \   00008C   7A..         MOV     R2,#`?<Constant "SwitchTestApp">` & 0xff
   \   00008E   7B..         MOV     R3,#(`?<Constant "SwitchTestApp">` >> 8) & 0xff
   \   000090   12....       LCALL   ??HalLcdWriteString?relay
    277          #endif
    278          
    279            ZDO_RegisterForZDOMsg( SwitchTestApp_TaskID, End_Device_Bind_rsp );
   \   000093                ; Setup parameters for call to function ZDO_RegisterForZDOMsg
   \   000093   7A20         MOV     R2,#0x20
   \   000095   7B80         MOV     R3,#-0x80
   \   000097   90....       MOV     DPTR,#SwitchTestApp_TaskID
   \   00009A   E0           MOVX    A,@DPTR
   \   00009B   F9           MOV     R1,A
   \   00009C   12....       LCALL   ??ZDO_RegisterForZDOMsg?relay
    280            ZDO_RegisterForZDOMsg( SwitchTestApp_TaskID, Match_Desc_rsp );
   \   00009F                ; Setup parameters for call to function ZDO_RegisterForZDOMsg
   \   00009F   7A06         MOV     R2,#0x6
   \   0000A1   7B80         MOV     R3,#-0x80
   \   0000A3   90....       MOV     DPTR,#SwitchTestApp_TaskID
   \   0000A6   E0           MOVX    A,@DPTR
   \   0000A7   F9           MOV     R1,A
   \   0000A8   12....       LCALL   ??ZDO_RegisterForZDOMsg?relay
    281          
    282          #if defined( IAR_ARMCM3_LM )
    283            // Register this task with RTOS task initiator
    284            RTOS_RegisterApp( task_id, SwitchTestApp_RTOS_MSG_EVT );
    285          #endif
    286          }
   \   0000AB   741D         MOV     A,#0x1d
   \   0000AD   12....       LCALL   ?DEALLOC_XSTACK8
   \   0000B0   02....       LJMP    ?Subroutine1 & 0xFFFF

   \                                 In  segment BANKED_CODE, align 1, keep-with-next
   \                     ?Subroutine6:
   \   000000   F0           MOVX    @DPTR,A
   \   000001                ; Setup parameters for call to function HalUARTOpen
   \   000001   85..82       MOV     DPL,?XSP + 0
   \   000004   85..83       MOV     DPH,?XSP + 1
   \   000007   22           RET
    287          
    288          /*********************************************************************
    289           * @fn      SwitchTestApp_ProcessEvent
    290           *
    291           * @brief   Generic Application Task event processor.  This function
    292           *          is called to process all events for the task.  Events
    293           *          include timers, messages and any other user defined events.
    294           *
    295           * @param   task_id  - The OSAL assigned task ID.
    296           * @param   events - events to process.  This is a bit map and can
    297           *                   contain more than one event.
    298           *
    299           * @return  none
    300           */

   \                                 In  segment BANKED_CODE, align 1, keep-with-next
    301          uint16 SwitchTestApp_ProcessEvent( uint8 task_id, uint16 events )
   \                     SwitchTestApp_ProcessEvent:
    302          {
   \   000000   74F2         MOV     A,#-0xe
   \   000002   12....       LCALL   ?BANKED_ENTER_XDATA
   \   000005                ; Saved register size: 14
   \   000005                ; Auto size: 21
   \   000005   74EB         MOV     A,#-0x15
   \   000007   12....       LCALL   ?ALLOC_XSTACK8
   \   00000A   EA           MOV     A,R2
   \   00000B   FE           MOV     R6,A
   \   00000C   EB           MOV     A,R3
   \   00000D   FF           MOV     R7,A
    303            afIncomingMSGPacket_t *MSGpkt;
    304            afDataConfirm_t *afDataConfirm;
    305          
    306            // Data Confirmation message fields
    307            byte sentEP;
    308            ZStatus_t sentStatus;
    309            byte sentTransID;       // This should match the value sent
    310            (void)task_id;  // Intentionally unreferenced parameter
    311          
    312            if ( events & SYS_EVENT_MSG )
   \   00000E   5480         ANL     A,#0x80
   \   000010   7003         JNZ     $+5
   \   000012   02....       LJMP    ??SwitchTestApp_ProcessEvent_0 & 0xFFFF
    313            {
    314              MSGpkt = (afIncomingMSGPacket_t *)osal_msg_receive( SwitchTestApp_TaskID );
   \   000015                ; Setup parameters for call to function osal_msg_receive
   \   000015   8043         SJMP    ??SwitchTestApp_ProcessEvent_1
    315              while ( MSGpkt )
    316              {
    317                switch ( MSGpkt->hdr.event )
    318                {
    319                  case ZDO_CB_MSG:
    320                    SwitchTestApp_ProcessZDOMsgs( (zdoIncomingMsg_t *)MSGpkt );
    321                    break;
    322          
    323                  case KEY_CHANGE:
    324                    SwitchTestApp_HandleKeys( ((keyChange_t *)MSGpkt)->state, ((keyChange_t *)MSGpkt)->keys );
    325                    break;
    326          
    327                  case AF_DATA_CONFIRM_CMD:
    328                    // This message is received as a confirmation of a data packet sent.
    329                    // The status is of ZStatus_t type [defined in ZComDef.h]
    330                    // The message fields are defined in AF.h
    331                    afDataConfirm = (afDataConfirm_t *)MSGpkt;
    332                    sentEP = afDataConfirm->endpoint;
    333                    sentStatus = afDataConfirm->hdr.status;
    334                    sentTransID = afDataConfirm->transID;
    335                    (void)sentEP;
    336                    (void)sentTransID;
    337          
    338                    // Action taken when confirmation is received.
    339                    if ( sentStatus != ZSuccess )
    340                    {
    341                      // The data wasn't delivered -- Do something
    342                    }
    343                    break;
    344          
    345                  case AF_INCOMING_MSG_CMD:
    346                    SwitchTestApp_MessageMSGCB( MSGpkt );
    347                    break;
    348          
    349                  case ZDO_STATE_CHANGE:
    350                    SwitchTestApp_NwkState = (devStates_t)(MSGpkt->hdr.status);
   \                     ??SwitchTestApp_ProcessEvent_2:
   \   000017   A3           INC     DPTR
   \   000018   E0           MOVX    A,@DPTR
   \   000019   90....       MOV     DPTR,#SwitchTestApp_NwkState
   \   00001C   F0           MOVX    @DPTR,A
    351                    if ( (SwitchTestApp_NwkState == DEV_ZB_COORD)
    352                        || (SwitchTestApp_NwkState == DEV_ROUTER)
    353                        || (SwitchTestApp_NwkState == DEV_END_DEVICE) )
   \   00001D   6409         XRL     A,#0x9
   \   00001F   600A         JZ      ??SwitchTestApp_ProcessEvent_3
   \   000021   E0           MOVX    A,@DPTR
   \   000022   6407         XRL     A,#0x7
   \   000024   6005         JZ      ??SwitchTestApp_ProcessEvent_3
   \   000026   E0           MOVX    A,@DPTR
   \   000027   6406         XRL     A,#0x6
   \   000029   7028         JNZ     ??SwitchTestApp_ProcessEvent_4
    354                    {
    355                      // Start sending "the" message in a regular interval.
    356                      osal_start_timerEx( SwitchTestApp_TaskID,
    357                                          SwitchTestApp_SEND_MSG_EVT,
    358                                          SwitchTestApp_SEND_MSG_TIMEOUT );
   \                     ??SwitchTestApp_ProcessEvent_3:
   \   00002B                ; Setup parameters for call to function osal_start_timerEx
   \   00002B   7C88         MOV     R4,#-0x78
   \   00002D   7D13         MOV     R5,#0x13
   \   00002F   7A01         MOV     R2,#0x1
   \   000031   7B00         MOV     R3,#0x0
   \   000033   90....       MOV     DPTR,#SwitchTestApp_TaskID
   \   000036   E0           MOVX    A,@DPTR
   \   000037   F9           MOV     R1,A
   \   000038   12....       LCALL   ??osal_start_timerEx?relay
    359                        if(SwitchTestApp_NwkState == DEV_ZB_COORD)
   \   00003B   90....       MOV     DPTR,#SwitchTestApp_NwkState
   \   00003E   E0           MOVX    A,@DPTR
   \   00003F   6409         XRL     A,#0x9
   \   000041   7010         JNZ     ??SwitchTestApp_ProcessEvent_4
    360                        {
    361                            HalUARTWrite(HAL_UART_PORT_0,"DEV_ZB_COORD",osal_strlen("DEV_ZB_COORD"));
   \   000043                ; Setup parameters for call to function HalUARTWrite
   \   000043                ; Setup parameters for call to function osal_strlen
   \   000043   7A..         MOV     R2,#`?<Constant "DEV_ZB_COORD">` & 0xff
   \   000045   7B..         MOV     R3,#(`?<Constant "DEV_ZB_COORD">` >> 8) & 0xff
   \   000047   12....       LCALL   ?Subroutine4 & 0xFFFF
    362                        }
    363                    }
   \                     ??CrossCallReturnLabel_2:
   \   00004A   7A..         MOV     R2,#`?<Constant "DEV_ZB_COORD">` & 0xff
   \   00004C   7B..         MOV     R3,#(`?<Constant "DEV_ZB_COORD">` >> 8) & 0xff
   \   00004E   7900         MOV     R1,#0x0
   \   000050   12....       LCALL   ??HalUARTWrite?relay
    364                    break;
    365          
    366                  default:
    367                    break;
    368                }
    369          
    370                // Release the memory
    371                osal_msg_deallocate( (uint8 *)MSGpkt );
   \                     ??SwitchTestApp_ProcessEvent_4:
   \   000053                ; Setup parameters for call to function osal_msg_deallocate
   \   000053   AA..         MOV     R2,?V0 + 0
   \   000055   AB..         MOV     R3,?V0 + 1
   \   000057   12....       LCALL   ??osal_msg_deallocate?relay
    372          
    373                // Next
    374                MSGpkt = (afIncomingMSGPacket_t *)osal_msg_receive( SwitchTestApp_TaskID );
   \   00005A                ; Setup parameters for call to function osal_msg_receive
   \                     ??SwitchTestApp_ProcessEvent_1:
   \   00005A   90....       MOV     DPTR,#SwitchTestApp_TaskID
   \   00005D   E0           MOVX    A,@DPTR
   \   00005E   F9           MOV     R1,A
   \   00005F   12....       LCALL   ??osal_msg_receive?relay
   \   000062   8A..         MOV     ?V0 + 0,R2
   \   000064   8B..         MOV     ?V0 + 1,R3
   \   000066   E5..         MOV     A,?V0 + 0
   \   000068   45..         ORL     A,?V0 + 1
   \   00006A   7003         JNZ     $+5
   \   00006C   02....       LJMP    ??SwitchTestApp_ProcessEvent_5 & 0xFFFF
   \   00006F   85..82       MOV     DPL,?V0 + 0
   \   000072   85..83       MOV     DPH,?V0 + 1
   \   000075   E0           MOVX    A,@DPTR
   \   000076   24E6         ADD     A,#-0x1a
   \   000078   7003         JNZ     $+5
   \   00007A   02....       LJMP    ??SwitchTestApp_ProcessEvent_6 & 0xFFFF
   \   00007D   245A         ADD     A,#0x5a
   \   00007F   7003         JNZ     $+5
   \   000081   02....       LJMP    ??SwitchTestApp_ProcessEvent_7 & 0xFFFF
   \   000084   24EF         ADD     A,#-0x11
   \   000086   608F         JZ      ??SwitchTestApp_ProcessEvent_2
   \   000088   24FE         ADD     A,#-0x2
   \   00008A   70C7         JNZ     ??SwitchTestApp_ProcessEvent_4
   \   00008C   E5..         MOV     A,?V0 + 0
   \   00008E   240C         ADD     A,#0xc
   \   000090   12....       LCALL   ?Subroutine7 & 0xFFFF
   \                     ??CrossCallReturnLabel_14:
   \   000093   F5..         MOV     ?V0 + 2,A
   \   000095   A3           INC     DPTR
   \   000096   E0           MOVX    A,@DPTR
   \   000097   F5..         MOV     ?V0 + 3,A
   \   000099   78..         MOV     R0,#?V0 + 2
   \   00009B   12....       LCALL   ?US_SWITCH_SPARSE
   \                     `?<Jumptable for SwitchTestApp_ProcessEvent>_0`:
   \   00009E   0000         DW        0
   \   0000A0   0200         DW        2
   \   0000A2   0680         DW        32774
   \   0000A4   ....         DW        ??SwitchTestApp_ProcessEvent_8
   \   0000A6   2080         DW        32800
   \   0000A8   ....         DW        ??SwitchTestApp_ProcessEvent_9
   \   0000AA   ....         DW        ??SwitchTestApp_ProcessEvent_4
   \                     ??SwitchTestApp_ProcessEvent_8:
   \   0000AC                ; Setup parameters for call to function ZDO_ParseEPListRsp
   \   0000AC   AA..         MOV     R2,?V0 + 0
   \   0000AE   AB..         MOV     R3,?V0 + 1
   \   0000B0   12....       LCALL   ??ZDO_ParseEPListRsp?relay
   \   0000B3   8A..         MOV     ?V0 + 2,R2
   \   0000B5   8B..         MOV     ?V0 + 3,R3
   \   0000B7   EA           MOV     A,R2
   \   0000B8   45..         ORL     A,?V0 + 3
   \   0000BA   6097         JZ      ??SwitchTestApp_ProcessEvent_4
   \   0000BC   8A82         MOV     DPL,R2
   \   0000BE   8B83         MOV     DPH,R3
   \   0000C0   E0           MOVX    A,@DPTR
   \   0000C1   7032         JNZ     ??SwitchTestApp_ProcessEvent_10
   \   0000C3   A3           INC     DPTR
   \   0000C4   A3           INC     DPTR
   \   0000C5   A3           INC     DPTR
   \   0000C6   E0           MOVX    A,@DPTR
   \   0000C7   602C         JZ      ??SwitchTestApp_ProcessEvent_10
   \   0000C9   90....       MOV     DPTR,#SwitchTestApp_DstAddr + 8
   \   0000CC   7402         MOV     A,#0x2
   \   0000CE   F0           MOVX    @DPTR,A
   \   0000CF   8A82         MOV     DPL,R2
   \   0000D1   8B83         MOV     DPH,R3
   \   0000D3   A3           INC     DPTR
   \   0000D4   E0           MOVX    A,@DPTR
   \   0000D5   F8           MOV     R0,A
   \   0000D6   A3           INC     DPTR
   \   0000D7   E0           MOVX    A,@DPTR
   \   0000D8   F9           MOV     R1,A
   \   0000D9   90....       MOV     DPTR,#SwitchTestApp_DstAddr
   \   0000DC   E8           MOV     A,R0
   \   0000DD   F0           MOVX    @DPTR,A
   \   0000DE   A3           INC     DPTR
   \   0000DF   E9           MOV     A,R1
   \   0000E0   F0           MOVX    @DPTR,A
   \   0000E1   8A82         MOV     DPL,R2
   \   0000E3   8B83         MOV     DPH,R3
   \   0000E5   A3           INC     DPTR
   \   0000E6   A3           INC     DPTR
   \   0000E7   A3           INC     DPTR
   \   0000E8   A3           INC     DPTR
   \   0000E9   E0           MOVX    A,@DPTR
   \   0000EA   90....       MOV     DPTR,#SwitchTestApp_DstAddr + 9
   \   0000ED   F0           MOVX    @DPTR,A
   \   0000EE                ; Setup parameters for call to function HalLedSet
   \   0000EE   7A01         MOV     R2,#0x1
   \   0000F0   7908         MOV     R1,#0x8
   \   0000F2   12....       LCALL   ??HalLedSet?relay
   \                     ??SwitchTestApp_ProcessEvent_10:
   \   0000F5                ; Setup parameters for call to function osal_mem_free
   \   0000F5   AA..         MOV     R2,?V0 + 2
   \   0000F7   AB..         MOV     R3,?V0 + 3
   \   0000F9   12....       LCALL   ??osal_mem_free?relay
   \   0000FC   02....       LJMP    ??SwitchTestApp_ProcessEvent_4 & 0xFFFF
   \                     ??SwitchTestApp_ProcessEvent_9:
   \   0000FF   E5..         MOV     A,?V0 + 0
   \   000101   2413         ADD     A,#0x13
   \   000103   12....       LCALL   ?Subroutine7 & 0xFFFF
   \                     ??CrossCallReturnLabel_15:
   \   000106   F8           MOV     R0,A
   \   000107   A3           INC     DPTR
   \   000108   E0           MOVX    A,@DPTR
   \   000109   F583         MOV     DPH,A
   \   00010B   8882         MOV     DPL,R0
   \   00010D   E0           MOVX    A,@DPTR
   \   00010E   700A         JNZ     ??SwitchTestApp_ProcessEvent_11
   \   000110                ; Setup parameters for call to function HalLedSet
   \   000110   7A01         MOV     R2,#0x1
   \                     ??SwitchTestApp_ProcessEvent_12:
   \   000112   7908         MOV     R1,#0x8
   \   000114   12....       LCALL   ??HalLedSet?relay
   \   000117   02....       LJMP    ??SwitchTestApp_ProcessEvent_4 & 0xFFFF
   \                     ??SwitchTestApp_ProcessEvent_11:
   \   00011A                ; Setup parameters for call to function HalLedSet
   \   00011A   7A04         MOV     R2,#0x4
   \   00011C   80F4         SJMP    ??SwitchTestApp_ProcessEvent_12
   \                     ??SwitchTestApp_ProcessEvent_7:
   \   00011E   A3           INC     DPTR
   \   00011F   A3           INC     DPTR
   \   000120   A3           INC     DPTR
   \   000121   E0           MOVX    A,@DPTR
   \   000122   F5..         MOV     ?V0 + 4,A
   \   000124   85..82       MOV     DPL,?V0 + 0
   \   000127   85..83       MOV     DPH,?V0 + 1
   \   00012A   A3           INC     DPTR
   \   00012B   A3           INC     DPTR
   \   00012C   E0           MOVX    A,@DPTR
   \   00012D   6003         JZ      $+5
   \   00012F   02....       LJMP    ??SwitchTestApp_ProcessEvent_4 & 0xFFFF
   \   000132   E5..         MOV     A,?V0 + 4
   \   000134   A2E1         MOV     C,0xE0 /* A   */.1
   \   000136   5069         JNC     ??SwitchTestApp_ProcessEvent_13
   \   000138                ; Setup parameters for call to function HalLedSet
   \   000138   7A00         MOV     R2,#0x0
   \   00013A   7908         MOV     R1,#0x8
   \   00013C   12....       LCALL   ??HalLedSet?relay
   \   00013F   7408         MOV     A,#0x8
   \   000141   12....       LCALL   ?XSTACK_DISP0_8
   \   000144   7402         MOV     A,#0x2
   \   000146   12....       LCALL   ?Subroutine6 & 0xFFFF
   \                     ??CrossCallReturnLabel_10:
   \   000149   E4           CLR     A
   \   00014A   F0           MOVX    @DPTR,A
   \   00014B   A3           INC     DPTR
   \   00014C   F0           MOVX    @DPTR,A
   \   00014D                ; Setup parameters for call to function NLME_GetShortAddr
   \   00014D   12....       LCALL   ??NLME_GetShortAddr?relay
   \   000150   8A..         MOV     ?V0 + 2,R2
   \   000152   8B..         MOV     ?V0 + 3,R3
   \   000154   AC..         MOV     R4,?V0 + 2
   \   000156   AD..         MOV     R5,?V0 + 3
   \   000158   75....       MOV     ?V0 + 2,#SwitchTestApp_ClusterList & 0xff
   \   00015B   75....       MOV     ?V0 + 3,#(SwitchTestApp_ClusterList >> 8) & 0xff
   \   00015E                ; Setup parameters for call to function ZDP_EndDeviceBindReq
   \   00015E   75..00       MOV     ?V0 + 5,#0x0
   \   000161   78..         MOV     R0,#?V0 + 5
   \   000163   12....       LCALL   ?PUSH_XSTACK_I_ONE
   \   000166   78..         MOV     R0,#?V0 + 2
   \   000168   12....       LCALL   ?PUSH_XSTACK_I_TWO
   \   00016B   75..01       MOV     ?V0 + 5,#0x1
   \   00016E   78..         MOV     R0,#?V0 + 5
   \   000170   12....       LCALL   ?PUSH_XSTACK_I_ONE
   \   000173   78..         MOV     R0,#?V0 + 2
   \   000175   12....       LCALL   ?PUSH_XSTACK_I_TWO
   \   000178   75..01       MOV     ?V0 + 2,#0x1
   \   00017B   78..         MOV     R0,#?V0 + 2
   \   00017D   12....       LCALL   ?PUSH_XSTACK_I_ONE
   \   000180   75..04       MOV     ?V0 + 2,#0x4
   \   000183   75..0F       MOV     ?V0 + 3,#0xf
   \   000186   78..         MOV     R0,#?V0 + 2
   \   000188   12....       LCALL   ?PUSH_XSTACK_I_TWO
   \   00018B   90....       MOV     DPTR,#SwitchTestApp_epDesc
   \   00018E   E0           MOVX    A,@DPTR
   \   00018F   F9           MOV     R1,A
   \   000190   7409         MOV     A,#0x9
   \   000192   12....       LCALL   ?XSTACK_DISP0_8
   \   000195   AA82         MOV     R2,DPL
   \   000197   AB83         MOV     R3,DPH
   \   000199   12....       LCALL   ??ZDP_EndDeviceBindReq?relay
   \   00019C   7409         MOV     A,#0x9
   \   00019E   12....       LCALL   ?DEALLOC_XSTACK8
   \                     ??SwitchTestApp_ProcessEvent_13:
   \   0001A1   E5..         MOV     A,?V0 + 4
   \   0001A3   A2E3         MOV     C,0xE0 /* A   */.3
   \   0001A5   4003         JC      $+5
   \   0001A7   02....       LJMP    ??SwitchTestApp_ProcessEvent_4 & 0xFFFF
   \   0001AA                ; Setup parameters for call to function HalLedSet
   \   0001AA   7A00         MOV     R2,#0x0
   \   0001AC   7908         MOV     R1,#0x8
   \   0001AE   12....       LCALL   ??HalLedSet?relay
   \   0001B1   7408         MOV     A,#0x8
   \   0001B3   12....       LCALL   ?XSTACK_DISP0_8
   \   0001B6   740F         MOV     A,#0xf
   \   0001B8   12....       LCALL   ?Subroutine6 & 0xFFFF
   \                     ??CrossCallReturnLabel_11:
   \   0001BB   74FF         MOV     A,#-0x1
   \   0001BD   F0           MOVX    @DPTR,A
   \   0001BE   A3           INC     DPTR
   \   0001BF   F0           MOVX    @DPTR,A
   \   0001C0   75....       MOV     ?V0 + 2,#SwitchTestApp_ClusterList & 0xff
   \   0001C3   75....       MOV     ?V0 + 3,#(SwitchTestApp_ClusterList >> 8) & 0xff
   \   0001C6                ; Setup parameters for call to function ZDP_MatchDescReq
   \   0001C6   75..00       MOV     ?V0 + 4,#0x0
   \   0001C9   78..         MOV     R0,#?V0 + 4
   \   0001CB   12....       LCALL   ?PUSH_XSTACK_I_ONE
   \   0001CE   78..         MOV     R0,#?V0 + 2
   \   0001D0   12....       LCALL   ?PUSH_XSTACK_I_TWO
   \   0001D3   75..01       MOV     ?V0 + 4,#0x1
   \   0001D6   78..         MOV     R0,#?V0 + 4
   \   0001D8   12....       LCALL   ?PUSH_XSTACK_I_ONE
   \   0001DB   78..         MOV     R0,#?V0 + 2
   \   0001DD   12....       LCALL   ?PUSH_XSTACK_I_TWO
   \   0001E0   75..04       MOV     ?V0 + 2,#0x4
   \   0001E3   75..0F       MOV     ?V0 + 3,#0xf
   \   0001E6   78..         MOV     R0,#?V0 + 2
   \   0001E8   12....       LCALL   ?PUSH_XSTACK_I_TWO
   \   0001EB   7901         MOV     R1,#0x1
   \   0001ED   7CFF         MOV     R4,#-0x1
   \   0001EF   7DFF         MOV     R5,#-0x1
   \   0001F1   7408         MOV     A,#0x8
   \   0001F3   12....       LCALL   ?XSTACK_DISP0_8
   \   0001F6   AA82         MOV     R2,DPL
   \   0001F8   AB83         MOV     R3,DPH
   \   0001FA   12....       LCALL   ??ZDP_MatchDescReq?relay
   \   0001FD   7408         MOV     A,#0x8
   \   0001FF   12....       LCALL   ?DEALLOC_XSTACK8
   \   000202   02....       LJMP    ??SwitchTestApp_ProcessEvent_4 & 0xFFFF
   \                     ??SwitchTestApp_ProcessEvent_6:
   \   000205                ; Setup parameters for call to function SwitchTestApp_MessageMSGCB
   \   000205   AA..         MOV     R2,?V0 + 0
   \   000207   AB..         MOV     R3,?V0 + 1
   \   000209   12....       LCALL   ??SwitchTestApp_MessageMSGCB?relay
   \   00020C   02....       LJMP    ??SwitchTestApp_ProcessEvent_4 & 0xFFFF
    375              }
    376          
    377              // return unprocessed events
    378              return (events ^ SYS_EVENT_MSG);
   \                     ??SwitchTestApp_ProcessEvent_5:
   \   00020F   EE           MOV     A,R6
   \   000210   FA           MOV     R2,A
   \   000211   EF           MOV     A,R7
   \   000212   6480         XRL     A,#0x80
   \                     ??SwitchTestApp_ProcessEvent_14:
   \   000214   FB           MOV     R3,A
   \   000215   02....       LJMP    ??SwitchTestApp_ProcessEvent_15 & 0xFFFF
    379            }
    380          
    381            // Send a message out - This event is generated by a timer
    382            //  (setup in SwitchTestApp_Init()).
    383            if ( events & SwitchTestApp_SEND_MSG_EVT )
   \                     ??SwitchTestApp_ProcessEvent_0:
   \   000218   EE           MOV     A,R6
   \   000219   A2E0         MOV     C,0xE0 /* A   */.0
   \   00021B   507B         JNC     ??SwitchTestApp_ProcessEvent_16
    384            {
    385              // Send "the" message
    386              SwitchTestApp_SendTheMessage();
   \   00021D   7409         MOV     A,#0x9
   \   00021F   12....       LCALL   ?XSTACK_DISP0_8
   \   000222   AC82         MOV     R4,DPL
   \   000224   AD83         MOV     R5,DPH
   \   000226   7583..       MOV     DPH,#(`?<Constant "Hello World">` >> 8) & 0xff
   \   000229   7582..       MOV     DPL,#`?<Constant "Hello World">` & 0xff
   \   00022C   740C         MOV     A,#0xc
   \   00022E   12....       LCALL   ?MOVE_LONG8_XDATA_XDATA
   \   000231                ; Setup parameters for call to function AF_DataRequest
   \   000231   75..1E       MOV     ?V0 + 0,#0x1e
   \   000234   78..         MOV     R0,#?V0 + 0
   \   000236   12....       LCALL   ?PUSH_XSTACK_I_ONE
   \   000239   75....       MOV     ?V0 + 0,#SwitchTestApp_TransID & 0xff
   \   00023C   75....       MOV     ?V0 + 1,#(SwitchTestApp_TransID >> 8) & 0xff
   \   00023F   78..         MOV     R0,#?V0 + 0
   \   000241   12....       LCALL   ?PUSH_XSTACK_I_TWO
   \   000244   740C         MOV     A,#0xc
   \   000246   12....       LCALL   ?XSTACK_DISP0_8
   \   000249   8582..       MOV     ?V0 + 0,DPL
   \   00024C   8583..       MOV     ?V0 + 1,DPH
   \   00024F   78..         MOV     R0,#?V0 + 0
   \   000251   12....       LCALL   ?PUSH_XSTACK_I_TWO
   \   000254                ; Setup parameters for call to function osal_strlen
   \   000254   740E         MOV     A,#0xe
   \   000256   12....       LCALL   ?XSTACK_DISP0_8
   \   000259   AA82         MOV     R2,DPL
   \   00025B   AB83         MOV     R3,DPH
   \   00025D   12....       LCALL   ?Subroutine5 & 0xFFFF
   \                     ??CrossCallReturnLabel_7:
   \   000260   12....       LCALL   ?PUSH_XSTACK_I_TWO
   \   000263   75..01       MOV     ?V0 + 0,#0x1
   \   000266   75..00       MOV     ?V0 + 1,#0x0
   \   000269   78..         MOV     R0,#?V0 + 0
   \   00026B   12....       LCALL   ?PUSH_XSTACK_I_TWO
   \   00026E   7920         MOV     R1,#0x20
   \   000270   7C..         MOV     R4,#SwitchTestApp_epDesc & 0xff
   \   000272   7D..         MOV     R5,#(SwitchTestApp_epDesc >> 8) & 0xff
   \   000274   7A..         MOV     R2,#SwitchTestApp_DstAddr & 0xff
   \   000276   7B..         MOV     R3,#(SwitchTestApp_DstAddr >> 8) & 0xff
   \   000278   12....       LCALL   ??AF_DataRequest?relay
   \   00027B   7409         MOV     A,#0x9
   \   00027D   12....       LCALL   ?DEALLOC_XSTACK8
    387          
    388              // Setup to send message again
    389              osal_start_timerEx( SwitchTestApp_TaskID,
    390                                  SwitchTestApp_SEND_MSG_EVT,
    391                                  SwitchTestApp_SEND_MSG_TIMEOUT );
   \   000280                ; Setup parameters for call to function osal_start_timerEx
   \   000280   7C88         MOV     R4,#-0x78
   \   000282   7D13         MOV     R5,#0x13
   \   000284   7A01         MOV     R2,#0x1
   \   000286   7B00         MOV     R3,#0x0
   \   000288   90....       MOV     DPTR,#SwitchTestApp_TaskID
   \   00028B   E0           MOVX    A,@DPTR
   \   00028C   F9           MOV     R1,A
   \   00028D   12....       LCALL   ??osal_start_timerEx?relay
    392          
    393              // return unprocessed events
    394              return (events ^ SwitchTestApp_SEND_MSG_EVT);
   \   000290   EE           MOV     A,R6
   \   000291   6401         XRL     A,#0x1
   \   000293   FA           MOV     R2,A
   \   000294   EF           MOV     A,R7
   \   000295   02....       LJMP    ??SwitchTestApp_ProcessEvent_14 & 0xFFFF
    395            }
    396          
    397            
    398          #if defined( IAR_ARMCM3_LM )
    399            // Receive a message from the RTOS queue
    400            if ( events & SwitchTestApp_RTOS_MSG_EVT )
    401            {
    402              // Process message from RTOS queue
    403              SwitchTestApp_ProcessRtosMessage();
    404          
    405              // return unprocessed events
    406              return (events ^ SwitchTestApp_RTOS_MSG_EVT);
    407            }
    408          #endif
    409          
    410            // Discard unknown events
    411            return 0;
   \                     ??SwitchTestApp_ProcessEvent_16:
   \   000298   7A00         MOV     R2,#0x0
   \   00029A   7B00         MOV     R3,#0x0
   \                     ??SwitchTestApp_ProcessEvent_15:
   \   00029C   7415         MOV     A,#0x15
   \   00029E   12....       LCALL   ?DEALLOC_XSTACK8
   \   0002A1   7F06         MOV     R7,#0x6
   \   0002A3   02....       LJMP    ?BANKED_LEAVE_XDATA
    412          }

   \                                 In  segment BANKED_CODE, align 1, keep-with-next
   \                     ?Subroutine7:
   \   000000   F582         MOV     DPL,A
   \   000002   E5..         MOV     A,?V0 + 1
   \   000004                REQUIRE ??Subroutine10_0
   \   000004                ; // Fall through to label ??Subroutine10_0

   \                                 In  segment BANKED_CODE, align 1, keep-with-next
   \                     ??Subroutine10_0:
   \   000000   3400         ADDC    A,#0x0
   \   000002   F583         MOV     DPH,A
   \   000004   E0           MOVX    A,@DPTR
   \   000005   22           RET

   \                                 In  segment BANKED_CODE, align 1, keep-with-next
   \                     ?Subroutine4:
   \   000000   12....       LCALL   ?Subroutine8 & 0xFFFF
   \                     ??CrossCallReturnLabel_20:
   \   000003   22           RET

   \                                 In  segment BANKED_CODE, align 1, keep-with-next
   \                     ?Subroutine8:
   \   000000   12....       LCALL   ??osal_strlen?relay
   \   000003   EA           MOV     A,R2
   \   000004   FC           MOV     R4,A
   \   000005   EB           MOV     A,R3
   \   000006   FD           MOV     R5,A
   \   000007   22           RET
    413          
    414          /*********************************************************************
    415           * Event Generation Functions
    416           */
    417          
    418          /*********************************************************************
    419           * @fn      SwitchTestApp_ProcessZDOMsgs()
    420           *
    421           * @brief   Process response messages
    422           *
    423           * @param   none
    424           *
    425           * @return  none
    426           */
    427          static void SwitchTestApp_ProcessZDOMsgs( zdoIncomingMsg_t *inMsg )
    428          {
    429            switch ( inMsg->clusterID )
    430            {
    431              case End_Device_Bind_rsp:
    432                if ( ZDO_ParseBindRsp( inMsg ) == ZSuccess )
    433                {
    434                  // Light LED
    435                  HalLedSet( HAL_LED_4, HAL_LED_MODE_ON );
    436                }
    437          #if defined( BLINK_LEDS )
    438                else
    439                {
    440                  // Flash LED to show failure
    441                  HalLedSet ( HAL_LED_4, HAL_LED_MODE_FLASH );
    442                }
    443          #endif
    444                break;
    445          
    446              case Match_Desc_rsp:
    447                {
    448                  ZDO_ActiveEndpointRsp_t *pRsp = ZDO_ParseEPListRsp( inMsg );
    449                  if ( pRsp )
    450                  {
    451                    if ( pRsp->status == ZSuccess && pRsp->cnt )
    452                    {
    453                      SwitchTestApp_DstAddr.addrMode = (afAddrMode_t)Addr16Bit;
    454                      SwitchTestApp_DstAddr.addr.shortAddr = pRsp->nwkAddr;
    455                      // Take the first endpoint, Can be changed to search through endpoints
    456                      SwitchTestApp_DstAddr.endPoint = pRsp->epList[0];
    457          
    458                      // Light LED
    459                      HalLedSet( HAL_LED_4, HAL_LED_MODE_ON );
    460                    }
    461                    osal_mem_free( pRsp );
    462                  }
    463                }
    464                break;
    465            }
    466          }
    467          
    468          /*********************************************************************
    469           * @fn      SwitchTestApp_HandleKeys
    470           *
    471           * @brief   Handles all key events for this device.
    472           *
    473           * @param   shift - true if in shift/alt.
    474           * @param   keys - bit field for key events. Valid entries:
    475           *                 HAL_KEY_SW_4
    476           *                 HAL_KEY_SW_3
    477           *                 HAL_KEY_SW_2
    478           *                 HAL_KEY_SW_1
    479           *
    480           * @return  none
    481           */
    482          static void SwitchTestApp_HandleKeys( uint8 shift, uint8 keys )
    483          {
    484            zAddrType_t dstAddr;
    485          
    486            // Shift is used to make each button/switch dual purpose.
    487            if ( shift )
    488            {
    489              if ( keys & HAL_KEY_SW_1 )
    490              {
    491              }
    492              if ( keys & HAL_KEY_SW_2 )
    493              {
    494              }
    495              if ( keys & HAL_KEY_SW_3 )
    496              {
    497              }
    498              if ( keys & HAL_KEY_SW_4 )
    499              {
    500              }
    501              if ( keys & HAL_KEY_SW_6 )
    502              {
    503              }
    504              if ( keys & HAL_KEY_SW_7 )
    505              {
    506              }
    507            }
    508            else
    509            {
    510              if ( keys & HAL_KEY_SW_1 )
    511              {
    512                // Since SW1 isn't used for anything else in this application...
    513          #if defined( SWITCH1_BIND )
    514                // we can use SW1 to simulate SW2 for devices that only have one switch,
    515                keys |= HAL_KEY_SW_2;
    516          #elif defined( SWITCH1_MATCH )
    517                // or use SW1 to simulate SW4 for devices that only have one switch
    518                keys |= HAL_KEY_SW_4;
    519          #endif
    520              }
    521          
    522              if ( keys & HAL_KEY_SW_2 )
    523              {
    524                HalLedSet ( HAL_LED_4, HAL_LED_MODE_OFF );
    525          
    526                // Initiate an End Device Bind Request for the mandatory endpoint
    527                dstAddr.addrMode = Addr16Bit;
    528                dstAddr.addr.shortAddr = 0x0000; // Coordinator
    529                ZDP_EndDeviceBindReq( &dstAddr, NLME_GetShortAddr(),
    530                                      SwitchTestApp_epDesc.endPoint,
    531                                      SwitchTestApp_PROFID,
    532                                      SwitchTestApp_MAX_CLUSTERS, (cId_t *)SwitchTestApp_ClusterList,
    533                                      SwitchTestApp_MAX_CLUSTERS, (cId_t *)SwitchTestApp_ClusterList,
    534                                      FALSE );
    535              }
    536          
    537              if ( keys & HAL_KEY_SW_3 )
    538              {
    539              }
    540          
    541              if ( keys & HAL_KEY_SW_4 )
    542              {
    543                HalLedSet ( HAL_LED_4, HAL_LED_MODE_OFF );
    544                // Initiate a Match Description Request (Service Discovery)
    545                dstAddr.addrMode = AddrBroadcast;
    546                dstAddr.addr.shortAddr = NWK_BROADCAST_SHORTADDR;
    547                ZDP_MatchDescReq( &dstAddr, NWK_BROADCAST_SHORTADDR,
    548                                  SwitchTestApp_PROFID,
    549                                  SwitchTestApp_MAX_CLUSTERS, (cId_t *)SwitchTestApp_ClusterList,
    550                                  SwitchTestApp_MAX_CLUSTERS, (cId_t *)SwitchTestApp_ClusterList,
    551                                  FALSE );
    552              }
    553            }
    554          }
    555          
    556          /*********************************************************************
    557           * LOCAL FUNCTIONS
    558           */
    559          
    560          /*********************************************************************
    561           * @fn      SwitchTestApp_MessageMSGCB
    562           *
    563           * @brief   Data message processor callback.  This function processes
    564           *          any incoming data - probably from other devices.  So, based
    565           *          on cluster ID, perform the intended action.
    566           *
    567           * @param   none
    568           *
    569           * @return  none
    570           */
    571          

   \                                 In  segment BANKED_CODE, align 1, keep-with-next
    572          static void SwitchTestApp_MessageMSGCB( afIncomingMSGPacket_t *pkt )
   \                     SwitchTestApp_MessageMSGCB:
    573          {
   \   000000   74F4         MOV     A,#-0xc
   \   000002   12....       LCALL   ?BANKED_ENTER_XDATA
   \   000005                ; Saved register size: 12
   \   000005                ; Auto size: 0
   \   000005   EA           MOV     A,R2
   \   000006   FE           MOV     R6,A
   \   000007   EB           MOV     A,R3
   \   000008   FF           MOV     R7,A
    574            
    575            
    576            switch ( pkt->clusterId )
   \   000009   8E82         MOV     DPL,R6
   \   00000B   8F83         MOV     DPH,R7
   \   00000D   A3           INC     DPTR
   \   00000E   A3           INC     DPTR
   \   00000F   A3           INC     DPTR
   \   000010   A3           INC     DPTR
   \   000011   E0           MOVX    A,@DPTR
   \   000012   6401         XRL     A,#0x1
   \   000014   7002         JNZ     ??SwitchTestApp_MessageMSGCB_0
   \   000016   A3           INC     DPTR
   \   000017   E0           MOVX    A,@DPTR
   \                     ??SwitchTestApp_MessageMSGCB_0:
   \   000018   6003         JZ      $+5
   \   00001A   02....       LJMP    ??SwitchTestApp_MessageMSGCB_1 & 0xFFFF
    577            {
    578              case SwitchTestApp_CLUSTERID:
    579                // "the" message
    580                HalUARTWrite(HAL_UART_PORT_0,pkt->cmd.Data,osal_strlen(pkt->cmd.Data));
                                                                              ^
Warning[Pe167]: argument of type "unsigned char *" is incompatible with
          parameter of type "char *"
   \   00001D   EE           MOV     A,R6
   \   00001E   2422         ADD     A,#0x22
   \   000020   F5..         MOV     ?V0 + 0,A
   \   000022   EF           MOV     A,R7
   \   000023   3400         ADDC    A,#0x0
   \   000025   F5..         MOV     ?V0 + 1,A
   \   000027                ; Setup parameters for call to function osal_strlen
   \   000027   85..82       MOV     DPL,?V0 + 0
   \   00002A   F583         MOV     DPH,A
   \   00002C   E0           MOVX    A,@DPTR
   \   00002D   FA           MOV     R2,A
   \   00002E   A3           INC     DPTR
   \   00002F   E0           MOVX    A,@DPTR
   \   000030   FB           MOV     R3,A
   \   000031   12....       LCALL   ??osal_strlen?relay
   \   000034   8A..         MOV     ?V0 + 2,R2
   \   000036   8B..         MOV     ?V0 + 3,R3
   \   000038   AC..         MOV     R4,?V0 + 2
   \   00003A   AD..         MOV     R5,?V0 + 3
   \   00003C                ; Setup parameters for call to function HalUARTWrite
   \   00003C   85..82       MOV     DPL,?V0 + 0
   \   00003F   85..83       MOV     DPH,?V0 + 1
   \   000042   E0           MOVX    A,@DPTR
   \   000043   FA           MOV     R2,A
   \   000044   A3           INC     DPTR
   \   000045   E0           MOVX    A,@DPTR
   \   000046   FB           MOV     R3,A
   \   000047   7900         MOV     R1,#0x0
   \   000049   12....       LCALL   ??HalUARTWrite?relay
    581                osal_memcpy(CodRecv_AFBuf,pkt->cmd.Data,AF_TXRX_DATA_LEN);
   \   00004C                ; Setup parameters for call to function osal_memcpy
   \   00004C   85..82       MOV     DPL,?V0 + 0
   \   00004F   85..83       MOV     DPH,?V0 + 1
   \   000052   E0           MOVX    A,@DPTR
   \   000053   F5..         MOV     ?V0 + 0,A
   \   000055   A3           INC     DPTR
   \   000056   E0           MOVX    A,@DPTR
   \   000057   F5..         MOV     ?V0 + 1,A
   \   000059   75..00       MOV     ?V0 + 2,#0x0
   \   00005C   78..         MOV     R0,#?V0 + 0
   \   00005E   12....       LCALL   ?PUSH_XSTACK_I_THREE
   \   000061   7C10         MOV     R4,#0x10
   \   000063   7D00         MOV     R5,#0x0
   \   000065   7A..         MOV     R2,#CodRecv_AFBuf & 0xff
   \   000067   7B..         MOV     R3,#(CodRecv_AFBuf >> 8) & 0xff
   \   000069   12....       LCALL   ??osal_memcpy?relay
   \   00006C   7403         MOV     A,#0x3
   \   00006E   12....       LCALL   ?DEALLOC_XSTACK8
    582                if(CodRecv_AFBuf[0]=='&' && CodRecv_AFBuf[1]=='&')
   \   000071   90....       MOV     DPTR,#CodRecv_AFBuf
   \   000074   E0           MOVX    A,@DPTR
   \   000075   6426         XRL     A,#0x26
   \   000077   7061         JNZ     ??SwitchTestApp_MessageMSGCB_2
   \   000079   A3           INC     DPTR
   \   00007A   E0           MOVX    A,@DPTR
   \   00007B   6426         XRL     A,#0x26
   \   00007D   705B         JNZ     ??SwitchTestApp_MessageMSGCB_2
    583                {
    584                    //组网发送信息
    585                    if(osal_memcmp(CodRecv_AFBuf,"&&ROUTER_LINK<<",AF_TXRX_DATA_LEN))
   \   00007F                ; Setup parameters for call to function osal_memcmp
   \   00007F   75....       MOV     ?V0 + 0,#`?<Constant "&&ROUTER_LINK<<">` & 0xff
   \   000082   75....       MOV     ?V0 + 1,#(`?<Constant "&&ROUTER_LINK<<">` >> 8) & 0xff
   \   000085   78..         MOV     R0,#?V0 + 0
   \   000087   12....       LCALL   ?PUSH_XSTACK_I_THREE
   \   00008A   7C10         MOV     R4,#0x10
   \   00008C   7D00         MOV     R5,#0x0
   \   00008E   79..         MOV     R1,#CodRecv_AFBuf & 0xff
   \   000090   7A..         MOV     R2,#(CodRecv_AFBuf >> 8) & 0xff
   \   000092   7B00         MOV     R3,#0x0
   \   000094   12....       LCALL   ??osal_memcmp?relay
   \   000097   7403         MOV     A,#0x3
   \   000099   12....       LCALL   ?DEALLOC_XSTACK8
   \   00009C   E9           MOV     A,R1
   \   00009D   603B         JZ      ??SwitchTestApp_MessageMSGCB_2
    586                    {
    587                          //FSetShortAddr(SwitchRouterAddr,);
    588                          routerLinkState = TRUE;
   \   00009F   90....       MOV     DPTR,#routerLinkState
   \   0000A2   7401         MOV     A,#0x1
   \   0000A4   F0           MOVX    @DPTR,A
    589                          FuncSetDstAddrInfo(&SwitchRouterAddr,Addr16Bit,pkt->srcAddr.endPoint, pkt->srcAddr.addr.shortAddr);
                                                                      ^
Warning[Pe188]: enumerated type mixed with another type
   \   0000A5                ; Setup parameters for call to function FuncSetDstAddrInfo
   \   0000A5   8E82         MOV     DPL,R6
   \   0000A7   8F83         MOV     DPH,R7
   \   0000A9   A3           INC     DPTR
   \   0000AA   A3           INC     DPTR
   \   0000AB   A3           INC     DPTR
   \   0000AC   A3           INC     DPTR
   \   0000AD   A3           INC     DPTR
   \   0000AE   A3           INC     DPTR
   \   0000AF   12....       LCALL   ?PUSH_XSTACK8_X_TWO
   \   0000B2   EE           MOV     A,R6
   \   0000B3   240F         ADD     A,#0xf
   \   0000B5   F582         MOV     DPL,A
   \   0000B7   EF           MOV     A,R7
   \   0000B8   12....       LCALL   ??Subroutine10_0 & 0xFFFF
   \                     ??CrossCallReturnLabel_12:
   \   0000BB   FC           MOV     R4,A
   \   0000BC   7902         MOV     R1,#0x2
   \   0000BE   7A..         MOV     R2,#SwitchRouterAddr & 0xff
   \   0000C0   7B..         MOV     R3,#(SwitchRouterAddr >> 8) & 0xff
   \   0000C2   12....       LCALL   ??FuncSetDstAddrInfo?relay
   \   0000C5   7402         MOV     A,#0x2
   \   0000C7   12....       LCALL   ?DEALLOC_XSTACK8
    590          		HalUARTWrite(HAL_UART_PORT_0,"ROU_LINK",osal_strlen("ROU_LINK"));
   \   0000CA                ; Setup parameters for call to function HalUARTWrite
   \   0000CA                ; Setup parameters for call to function osal_strlen
   \   0000CA   7A..         MOV     R2,#`?<Constant "ROU_LINK">` & 0xff
   \   0000CC   7B..         MOV     R3,#(`?<Constant "ROU_LINK">` >> 8) & 0xff
   \   0000CE   12....       LCALL   ?Subroutine4 & 0xFFFF
    591                    }
    592                }
   \                     ??CrossCallReturnLabel_3:
   \   0000D1   7A..         MOV     R2,#`?<Constant "ROU_LINK">` & 0xff
   \   0000D3   7B..         MOV     R3,#(`?<Constant "ROU_LINK">` >> 8) & 0xff
   \   0000D5   7900         MOV     R1,#0x0
   \   0000D7   12....       LCALL   ??HalUARTWrite?relay
    593                
    594          #if defined( LCD_SUPPORTED )
    595                HalLcdWriteScreen( (char*)pkt->cmd.Data, "rcvd" );
   \                     ??SwitchTestApp_MessageMSGCB_2:
   \   0000DA                ; Setup parameters for call to function HalLcdWriteScreen
   \   0000DA   7C..         MOV     R4,#`?<Constant "rcvd">` & 0xff
   \   0000DC   7D..         MOV     R5,#(`?<Constant "rcvd">` >> 8) & 0xff
   \   0000DE   EE           MOV     A,R6
   \   0000DF   2422         ADD     A,#0x22
   \   0000E1   F582         MOV     DPL,A
   \   0000E3   EF           MOV     A,R7
   \   0000E4   12....       LCALL   ??Subroutine10_0 & 0xFFFF
   \                     ??CrossCallReturnLabel_13:
   \   0000E7   FA           MOV     R2,A
   \   0000E8   A3           INC     DPTR
   \   0000E9   E0           MOVX    A,@DPTR
   \   0000EA   FB           MOV     R3,A
   \   0000EB   12....       LCALL   ??HalLcdWriteScreen?relay
    596          #elif defined( WIN32 )
    597                WPRINTSTR( pkt->cmd.Data );
    598          #endif
    599                break;
    600            }
    601          }
   \                     ??SwitchTestApp_MessageMSGCB_1:
   \   0000EE   7F04         MOV     R7,#0x4
   \   0000F0   02....       LJMP    ?BANKED_LEAVE_XDATA
    602          
    603          /*********************************************************************
    604           * @fn      SwitchTestApp_SendTheMessage
    605           *
    606           * @brief   Send "the" message.
    607           *
    608           * @param   none
    609           *
    610           * @return  none
    611           */
    612          static void SwitchTestApp_SendTheMessage( void )
    613          {
    614            char theMessageData[] = "Hello World";
    615          
    616            if ( AF_DataRequest( &SwitchTestApp_DstAddr, &SwitchTestApp_epDesc,
    617                                 SwitchTestApp_CLUSTERID,
    618                                 (byte)osal_strlen( theMessageData ) + 1,
    619                                 (byte *)&theMessageData,
    620                                 &SwitchTestApp_TransID,
    621                                 AF_DISCV_ROUTE, AF_DEFAULT_RADIUS ) == afStatus_SUCCESS )
    622            {
    623              // Successfully requested to be sent.
    624            }
    625            else
    626            {
    627              // Error occurred in request to send.
    628            }
    629          }
    630          
    631          /*********************************************************************
    632           * @fn      Switch_SendMsgToRouter()
    633           *
    634           * @brief   Send "the" message.
    635           *
    636           * @param   none
    637           *
    638           * @return  none
    639           */
    640          static void Switch_SendMsgToRouter( void )
    641          {
    642            //char theMessageData[] = "Hello World";
    643          
    644          
    645              if(TRUE == routerLinkState)
    646              {    
    647                    osal_memset(CodSend_AFBuf,0,AF_TXRX_DATA_LEN);
    648                    osal_memcpy(CodSend_AFBuf,SerialApp_RxBuf,osal_strlen(SerialApp_RxBuf));
                                                                                 ^
Warning[Pe167]: argument of type "unsigned char *" is incompatible with
          parameter of type "char *"
    649                    
    650                    if(AF_DataRequest( &SwitchRouterAddr, &SwitchTestApp_epDesc,
    651                                 SwitchTestApp_CLUSTERID,
    652                                 (byte)osal_strlen( CodSend_AFBuf ) + 1,
                                                           ^
Warning[Pe167]: argument of type "unsigned char *" is incompatible with
          parameter of type "char *"
    653                                 (byte *)&CodSend_AFBuf,
    654                                 &SwitchTestApp_TransID,
    655                                 AF_DISCV_ROUTE, AF_DEFAULT_RADIUS ) == afStatus_SUCCESS
    656                                            )
    657                    {
    658                          // Successfully requested to be sent.
    659                          HalUARTWrite(0,">>Send ROU &&CLOSELED1 INFO <<",osal_strlen(">>Send ROU &&CLOSELED1 INFO <<"));
    660          	    }
    661              }
    662              else
    663              {
    664          
    665          	   HalUARTWrite(0,">>Router Un LINK State <<",osal_strlen(">>Router Un LINK State "));
    666              }
    667          
    668          }
    669          
    670          #if defined( IAR_ARMCM3_LM )
    671          /*********************************************************************
    672           * @fn      SwitchTestApp_ProcessRtosMessage
    673           *
    674           * @brief   Receive message from RTOS queue, send response back.
    675           *
    676           * @param   none
    677           *
    678           * @return  none
    679           */
    680          static void SwitchTestApp_ProcessRtosMessage( void )
    681          {
    682            osalQueue_t inMsg;
    683          
    684            if ( osal_queue_receive( OsalQueue, &inMsg, 0 ) == pdPASS )
    685            {
    686              uint8 cmndId = inMsg.cmnd;
    687              uint32 counter = osal_build_uint32( inMsg.cbuf, 4 );
    688          
    689              switch ( cmndId )
    690              {
    691                case CMD_INCR:
    692                  counter += 1;  /* Increment the incoming counter */
    693                                 /* Intentionally fall through next case */
    694          
    695                case CMD_ECHO:
    696                {
    697                  userQueue_t outMsg;
    698          
    699                  outMsg.resp = RSP_CODE | cmndId;  /* Response ID */
    700                  osal_buffer_uint32( outMsg.rbuf, counter );    /* Increment counter */
    701                  osal_queue_send( UserQueue1, &outMsg, 0 );  /* Send back to UserTask */
    702                  break;
    703                }
    704                
    705                default:
    706                  break;  /* Ignore unknown command */    
    707              }
    708            }
    709          }
    710          #endif
    711          
    712          
    713          /*********************************************************************
    714           * @fn      SerialApp_CallBack
    715           *
    716           * @brief   Send data OTA.
    717           *
    718           * @param   port - UART port.
    719           * @param   event - the UART port event flag.
    720           *
    721           * @return  none
    722           */

   \                                 In  segment BANKED_CODE, align 1, keep-with-next
    723          static void SerialApp_CallBack(uint8 port, uint8 event)
   \                     SerialApp_CallBack:
    724          {
   \   000000   74F5         MOV     A,#-0xb
   \   000002   12....       LCALL   ?BANKED_ENTER_XDATA
   \   000005                ; Saved register size: 11
   \   000005                ; Auto size: 0
    725              (void)port;
    726          
    727              uint8 readLen = 0;
    728          
    729              
    730          
    731              osal_memset(SerialApp_RxBuf,0,SERIAL_APP_RSP_CNT);
   \   000005                ; Setup parameters for call to function osal_memset
   \   000005   7CFE         MOV     R4,#-0x2
   \   000007   7D00         MOV     R5,#0x0
   \   000009   7900         MOV     R1,#0x0
   \   00000B   7A..         MOV     R2,#SerialApp_RxBuf & 0xff
   \   00000D   7B..         MOV     R3,#(SerialApp_RxBuf >> 8) & 0xff
   \   00000F   12....       LCALL   ??osal_memset?relay
    732            
    733              readLen =  HalUARTRead(HAL_UART_PORT_0,SerialApp_RxBuf,SERIAL_APP_RSP_CNT);
    734              if(0 < readLen)
   \   000012                ; Setup parameters for call to function HalUARTRead
   \   000012   7CFE         MOV     R4,#-0x2
   \   000014   7D00         MOV     R5,#0x0
   \   000016   7A..         MOV     R2,#SerialApp_RxBuf & 0xff
   \   000018   7B..         MOV     R3,#(SerialApp_RxBuf >> 8) & 0xff
   \   00001A   7900         MOV     R1,#0x0
   \   00001C   12....       LCALL   ??HalUARTRead?relay
   \   00001F   EA           MOV     A,R2
   \   000020   7003         JNZ     $+5
   \   000022   02....       LJMP    ??SerialApp_CallBack_0 & 0xFFFF
    735              {
    736                  
    737                  if(osal_memcmp(SerialApp_RxBuf,"&&CLOSELED1<<",osal_strlen("&&CLOSELED1<<")))
   \   000025                ; Setup parameters for call to function osal_memcmp
   \   000025   75....       MOV     ?V0 + 0,#`?<Constant "&&CLOSELED1<<">` & 0xff
   \   000028   75....       MOV     ?V0 + 1,#(`?<Constant "&&CLOSELED1<<">` >> 8) & 0xff
   \   00002B   75..00       MOV     ?V0 + 2,#0x0
   \   00002E   78..         MOV     R0,#?V0 + 0
   \   000030   12....       LCALL   ?PUSH_XSTACK_I_THREE
   \   000033                ; Setup parameters for call to function osal_strlen
   \   000033   12....       LCALL   ?Subroutine2 & 0xFFFF
   \                     ??CrossCallReturnLabel_16:
   \   000036   12....       LCALL   ?DEALLOC_XSTACK8
   \   000039   E9           MOV     A,R1
   \   00003A   6015         JZ      ??SerialApp_CallBack_1
    738                  {
    739                     osal_memcpy(SerialApp_RxBuf,"&&CLOSELED1<<",osal_strlen("&&CLOSELED1<<")); 
   \   00003C                ; Setup parameters for call to function osal_memcpy
   \                     ??SerialApp_CallBack_2:
   \   00003C   78..         MOV     R0,#?V0 + 0
   \   00003E   12....       LCALL   ?PUSH_XSTACK_I_THREE
   \   000041                ; Setup parameters for call to function osal_strlen
   \   000041   7A..         MOV     R2,#`?<Constant "&&CLOSELED1<<">` & 0xff
   \   000043   7B..         MOV     R3,#(`?<Constant "&&CLOSELED1<<">` >> 8) & 0xff
   \   000045   12....       LCALL   ?Subroutine3 & 0xFFFF
   \                     ??CrossCallReturnLabel_0:
   \   000048   12....       LCALL   ?DEALLOC_XSTACK8
    740                     HalLedSet ( HAL_LED_1, HAL_LED_MODE_TOGGLE );
   \   00004B                ; Setup parameters for call to function HalLedSet
   \   00004B   7A08         MOV     R2,#0x8
   \   00004D   7901         MOV     R1,#0x1
   \   00004F   8057         SJMP    ??SerialApp_CallBack_3
    741                  }
    742                  else if(osal_memcmp(SerialApp_RxBuf,"&&CLOSELED2<<",osal_strlen("&&CLOSELED1<<")))
   \                     ??SerialApp_CallBack_1:
   \   000051                ; Setup parameters for call to function osal_memcmp
   \   000051   75....       MOV     ?V0 + 0,#`?<Constant "&&CLOSELED2<<">` & 0xff
   \   000054   75....       MOV     ?V0 + 1,#(`?<Constant "&&CLOSELED2<<">` >> 8) & 0xff
   \   000057   78..         MOV     R0,#?V0 + 0
   \   000059   12....       LCALL   ?PUSH_XSTACK_I_THREE
   \   00005C                ; Setup parameters for call to function osal_strlen
   \   00005C   12....       LCALL   ?Subroutine2 & 0xFFFF
   \                     ??CrossCallReturnLabel_17:
   \   00005F   12....       LCALL   ?DEALLOC_XSTACK8
   \   000062   E9           MOV     A,R1
   \   000063   70D7         JNZ     ??SerialApp_CallBack_2
    743                  {
    744                     osal_memcpy(SerialApp_RxBuf,"&&CLOSELED2<<",osal_strlen("&&CLOSELED1<<")); 
   \   000065                ; Setup parameters for call to function osal_memcpy
    745                     HalLedSet ( HAL_LED_1, HAL_LED_MODE_TOGGLE );
    746                  }
    747                  else if(osal_memcmp(SerialApp_RxBuf,"&&OPENLED1<<",osal_strlen("&&OPENLED1<<")))
   \   000065                ; Setup parameters for call to function osal_memcmp
   \   000065   75....       MOV     ?V0 + 0,#`?<Constant "&&OPENLED1<<">` & 0xff
   \   000068   75....       MOV     ?V0 + 1,#(`?<Constant "&&OPENLED1<<">` >> 8) & 0xff
   \   00006B   78..         MOV     R0,#?V0 + 0
   \   00006D   12....       LCALL   ?PUSH_XSTACK_I_THREE
   \   000070                ; Setup parameters for call to function osal_strlen
   \   000070   7A..         MOV     R2,#`?<Constant "&&OPENLED1<<">` & 0xff
   \   000072   7B..         MOV     R3,#(`?<Constant "&&OPENLED1<<">` >> 8) & 0xff
   \   000074   12....       LCALL   ??Subroutine11_0 & 0xFFFF
   \                     ??CrossCallReturnLabel_18:
   \   000077   12....       LCALL   ?DEALLOC_XSTACK8
   \   00007A   E9           MOV     A,R1
   \   00007B   7018         JNZ     ??SerialApp_CallBack_4
    748                  {
    749                     osal_memcpy(SerialApp_RxBuf,"&&OPENLED1<<",osal_strlen("&&OPENLED1<<")); 
   \   00007D                ; Setup parameters for call to function osal_memcpy
    750                     HalLedSet ( HAL_LED_2, HAL_LED_MODE_TOGGLE );
    751                  }
    752                  else if(osal_memcmp(SerialApp_RxBuf,"&&OPENLED2<<",osal_strlen("&&OPENLED1<<")))
   \   00007D                ; Setup parameters for call to function osal_memcmp
   \   00007D   75....       MOV     ?V0 + 0,#`?<Constant "&&OPENLED2<<">` & 0xff
   \   000080   75....       MOV     ?V0 + 1,#(`?<Constant "&&OPENLED2<<">` >> 8) & 0xff
   \   000083   78..         MOV     R0,#?V0 + 0
   \   000085   12....       LCALL   ?PUSH_XSTACK_I_THREE
   \   000088                ; Setup parameters for call to function osal_strlen
   \   000088   7A..         MOV     R2,#`?<Constant "&&OPENLED1<<">` & 0xff
   \   00008A   7B..         MOV     R3,#(`?<Constant "&&OPENLED1<<">` >> 8) & 0xff
   \   00008C   12....       LCALL   ??Subroutine11_0 & 0xFFFF
   \                     ??CrossCallReturnLabel_19:
   \   00008F   12....       LCALL   ?DEALLOC_XSTACK8
   \   000092   E9           MOV     A,R1
   \   000093   6016         JZ      ??SerialApp_CallBack_5
    753                  {
    754                     osal_memcpy(SerialApp_RxBuf,"&&OPENLED2<<",osal_strlen("&&OPENLED1<<")); 
   \   000095                ; Setup parameters for call to function osal_memcpy
   \                     ??SerialApp_CallBack_4:
   \   000095   78..         MOV     R0,#?V0 + 0
   \   000097   12....       LCALL   ?PUSH_XSTACK_I_THREE
   \   00009A                ; Setup parameters for call to function osal_strlen
   \   00009A   7A..         MOV     R2,#`?<Constant "&&OPENLED1<<">` & 0xff
   \   00009C   7B..         MOV     R3,#(`?<Constant "&&OPENLED1<<">` >> 8) & 0xff
   \   00009E   12....       LCALL   ?Subroutine3 & 0xFFFF
   \                     ??CrossCallReturnLabel_1:
   \   0000A1   12....       LCALL   ?DEALLOC_XSTACK8
    755                     HalLedSet ( HAL_LED_2, HAL_LED_MODE_TOGGLE );
   \   0000A4                ; Setup parameters for call to function HalLedSet
   \   0000A4   7A08         MOV     R2,#0x8
   \   0000A6   7902         MOV     R1,#0x2
   \                     ??SerialApp_CallBack_3:
   \   0000A8   12....       LCALL   ??HalLedSet?relay
    756                  }
    757                  Switch_SendMsgToRouter();
   \                     ??SerialApp_CallBack_5:
   \   0000AB   90....       MOV     DPTR,#routerLinkState
   \   0000AE   E0           MOVX    A,@DPTR
   \   0000AF   6401         XRL     A,#0x1
   \   0000B1   6003         JZ      $+5
   \   0000B3   02....       LJMP    ??SerialApp_CallBack_6 & 0xFFFF
   \   0000B6                ; Setup parameters for call to function osal_memset
   \   0000B6   7C10         MOV     R4,#0x10
   \   0000B8   7D00         MOV     R5,#0x0
   \   0000BA   7900         MOV     R1,#0x0
   \   0000BC   7A..         MOV     R2,#CodSend_AFBuf & 0xff
   \   0000BE   7B..         MOV     R3,#(CodSend_AFBuf >> 8) & 0xff
   \   0000C0   12....       LCALL   ??osal_memset?relay
   \   0000C3                ; Setup parameters for call to function osal_memcpy
   \   0000C3   75....       MOV     ?V0 + 0,#SerialApp_RxBuf & 0xff
   \   0000C6   75....       MOV     ?V0 + 1,#(SerialApp_RxBuf >> 8) & 0xff
   \   0000C9   78..         MOV     R0,#?V0 + 0
   \   0000CB   12....       LCALL   ?PUSH_XSTACK_I_THREE
   \   0000CE                ; Setup parameters for call to function osal_strlen
   \   0000CE   7A..         MOV     R2,#SerialApp_RxBuf & 0xff
   \   0000D0   7B..         MOV     R3,#(SerialApp_RxBuf >> 8) & 0xff
   \   0000D2   12....       LCALL   ?Subroutine4 & 0xFFFF
    758              }
   \                     ??CrossCallReturnLabel_4:
   \   0000D5   7A..         MOV     R2,#CodSend_AFBuf & 0xff
   \   0000D7   7B..         MOV     R3,#(CodSend_AFBuf >> 8) & 0xff
   \   0000D9   12....       LCALL   ??osal_memcpy?relay
   \   0000DC   7403         MOV     A,#0x3
   \   0000DE   12....       LCALL   ?DEALLOC_XSTACK8
   \   0000E1                ; Setup parameters for call to function AF_DataRequest
   \   0000E1   75..1E       MOV     ?V0 + 0,#0x1e
   \   0000E4   78..         MOV     R0,#?V0 + 0
   \   0000E6   12....       LCALL   ?PUSH_XSTACK_I_ONE
   \   0000E9   75....       MOV     ?V0 + 0,#SwitchTestApp_TransID & 0xff
   \   0000EC   75....       MOV     ?V0 + 1,#(SwitchTestApp_TransID >> 8) & 0xff
   \   0000EF   78..         MOV     R0,#?V0 + 0
   \   0000F1   12....       LCALL   ?PUSH_XSTACK_I_TWO
   \   0000F4   75....       MOV     ?V0 + 0,#CodSend_AFBuf & 0xff
   \   0000F7   75....       MOV     ?V0 + 1,#(CodSend_AFBuf >> 8) & 0xff
   \   0000FA   78..         MOV     R0,#?V0 + 0
   \   0000FC   12....       LCALL   ?PUSH_XSTACK_I_TWO
   \   0000FF                ; Setup parameters for call to function osal_strlen
   \   0000FF   7A..         MOV     R2,#CodSend_AFBuf & 0xff
   \   000101   7B..         MOV     R3,#(CodSend_AFBuf >> 8) & 0xff
   \   000103   12....       LCALL   ?Subroutine5 & 0xFFFF
   \                     ??CrossCallReturnLabel_8:
   \   000106   12....       LCALL   ?PUSH_XSTACK_I_TWO
   \   000109   75..01       MOV     ?V0 + 0,#0x1
   \   00010C   75..00       MOV     ?V0 + 1,#0x0
   \   00010F   78..         MOV     R0,#?V0 + 0
   \   000111   12....       LCALL   ?PUSH_XSTACK_I_TWO
   \   000114   7920         MOV     R1,#0x20
   \   000116   7C..         MOV     R4,#SwitchTestApp_epDesc & 0xff
   \   000118   7D..         MOV     R5,#(SwitchTestApp_epDesc >> 8) & 0xff
   \   00011A   7A..         MOV     R2,#SwitchRouterAddr & 0xff
   \   00011C   7B..         MOV     R3,#(SwitchRouterAddr >> 8) & 0xff
   \   00011E   12....       LCALL   ??AF_DataRequest?relay
   \   000121   7409         MOV     A,#0x9
   \   000123   12....       LCALL   ?DEALLOC_XSTACK8
   \   000126   E9           MOV     A,R1
   \   000127   701D         JNZ     ??SerialApp_CallBack_0
   \   000129                ; Setup parameters for call to function HalUARTWrite
   \   000129                ; Setup parameters for call to function osal_strlen
   \   000129   7A..         MOV     R2,#`?<Constant ">>Send ROU &&CLOSELED...">` & 0xff
   \   00012B   7B..         MOV     R3,#(`?<Constant ">>Send ROU &&CLOSELED...">` >> 8) & 0xff
   \   00012D   12....       LCALL   ?Subroutine4 & 0xFFFF
   \                     ??CrossCallReturnLabel_5:
   \   000130   7A..         MOV     R2,#`?<Constant ">>Send ROU &&CLOSELED...">` & 0xff
   \   000132   7B..         MOV     R3,#(`?<Constant ">>Send ROU &&CLOSELED...">` >> 8) & 0xff
   \   000134   800B         SJMP    ??SerialApp_CallBack_7
   \                     ??SerialApp_CallBack_6:
   \   000136                ; Setup parameters for call to function HalUARTWrite
   \   000136                ; Setup parameters for call to function osal_strlen
   \   000136   7A..         MOV     R2,#`?<Constant ">>Router Un LINK State ">` & 0xff
   \   000138   7B..         MOV     R3,#(`?<Constant ">>Router Un LINK State ">` >> 8) & 0xff
   \   00013A   12....       LCALL   ?Subroutine4 & 0xFFFF
   \                     ??CrossCallReturnLabel_6:
   \   00013D   7A..         MOV     R2,#`?<Constant ">>Router Un LINK Stat...">` & 0xff
   \   00013F   7B..         MOV     R3,#(`?<Constant ">>Router Un LINK Stat...">` >> 8) & 0xff
   \                     ??SerialApp_CallBack_7:
   \   000141   7900         MOV     R1,#0x0
   \   000143   12....       LCALL   ??HalUARTWrite?relay
    759            
    760          
    761            #if 0
    762            if ((event & (HAL_UART_RX_FULL | HAL_UART_RX_ABOUT_FULL | HAL_UART_RX_TIMEOUT)) &&
    763                  !SerialApp_TxLen)
    764          
    765            {
    766               //SerialApp_Send();
    767            }
    768            #endif
    769          }
   \                     ??SerialApp_CallBack_0:
   \   000146   7F03         MOV     R7,#0x3
   \   000148   02....       LJMP    ?BANKED_LEAVE_XDATA

   \                                 In  segment BANKED_CODE, align 1, keep-with-next
   \                     ?Subroutine5:
   \   000000   12....       LCALL   ??osal_strlen?relay
   \   000003   EA           MOV     A,R2
   \   000004   2401         ADD     A,#0x1
   \   000006   F5..         MOV     ?V0 + 0,A
   \   000008   E4           CLR     A
   \   000009   3400         ADDC    A,#0x0
   \   00000B   F5..         MOV     ?V0 + 1,A
   \   00000D   78..         MOV     R0,#?V0 + 0
   \   00000F   22           RET

   \                                 In  segment BANKED_CODE, align 1, keep-with-next
   \                     ?Subroutine3:
   \   000000   12....       LCALL   ?Subroutine8 & 0xFFFF
   \                     ??CrossCallReturnLabel_21:
   \   000003   7A..         MOV     R2,#SerialApp_RxBuf & 0xff
   \   000005   7B..         MOV     R3,#(SerialApp_RxBuf >> 8) & 0xff
   \   000007   12....       LCALL   ??osal_memcpy?relay
   \   00000A   7403         MOV     A,#0x3
   \   00000C   22           RET

   \                                 In  segment BANKED_CODE, align 1, keep-with-next
   \                     ?Subroutine2:
   \   000000   7A..         MOV     R2,#`?<Constant "&&CLOSELED1<<">` & 0xff
   \   000002   7B..         MOV     R3,#(`?<Constant "&&CLOSELED1<<">` >> 8) & 0xff
   \   000004                REQUIRE ??Subroutine11_0
   \   000004                ; // Fall through to label ??Subroutine11_0

   \                                 In  segment BANKED_CODE, align 1, keep-with-next
   \                     ??Subroutine11_0:
   \   000000   12....       LCALL   ?Subroutine8 & 0xFFFF
   \                     ??CrossCallReturnLabel_22:
   \   000003   79..         MOV     R1,#SerialApp_RxBuf & 0xff
   \   000005   7A..         MOV     R2,#(SerialApp_RxBuf >> 8) & 0xff
   \   000007   7B00         MOV     R3,#0x0
   \   000009   12....       LCALL   ??osal_memcmp?relay
   \   00000C   7403         MOV     A,#0x3
   \   00000E   22           RET

   \                                 In  segment BANK_RELAYS, align 1
   \                     ??FSetAddrMode?relay:
   \   000000   12....       LCALL   ?BDISPATCH
   \   000003   ......       DC24    FSetAddrMode

   \                                 In  segment BANK_RELAYS, align 1
   \                     ??FSetEndPoint?relay:
   \   000000   12....       LCALL   ?BDISPATCH
   \   000003   ......       DC24    FSetEndPoint

   \                                 In  segment BANK_RELAYS, align 1
   \                     ??FSetShortAddr?relay:
   \   000000   12....       LCALL   ?BDISPATCH
   \   000003   ......       DC24    FSetShortAddr

   \                                 In  segment BANK_RELAYS, align 1
   \                     ??FuncSetDstAddrInfo?relay:
   \   000000   12....       LCALL   ?BDISPATCH
   \   000003   ......       DC24    FuncSetDstAddrInfo

   \                                 In  segment BANK_RELAYS, align 1
   \                     ??SwitchTestApp_Init?relay:
   \   000000   12....       LCALL   ?BDISPATCH
   \   000003   ......       DC24    SwitchTestApp_Init

   \                                 In  segment BANK_RELAYS, align 1
   \                     ??SwitchTestApp_ProcessEvent?relay:
   \   000000   12....       LCALL   ?BDISPATCH
   \   000003   ......       DC24    SwitchTestApp_ProcessEvent

   \                                 In  segment BANK_RELAYS, align 1
   \                     ??SwitchTestApp_MessageMSGCB?relay:
   \   000000   12....       LCALL   ?BDISPATCH
   \   000003   ......       DC24    SwitchTestApp_MessageMSGCB

   \                                 In  segment BANK_RELAYS, align 1
   \                     ??SerialApp_CallBack?relay:
   \   000000   12....       LCALL   ?BDISPATCH
   \   000003   ......       DC24    SerialApp_CallBack

   \                                 In  segment XDATA_ROM_C, align 1
   \                     `?<Constant "SwitchTestApp">`:
   \   000000   53776974     DB "SwitchTestApp"
   \            63685465
   \            73744170
   \            7000    

   \                                 In  segment XDATA_ROM_C, align 1
   \                     `?<Constant "DEV_ZB_COORD">`:
   \   000000   4445565F     DB "DEV_ZB_COORD"
   \            5A425F43
   \            4F4F5244
   \            00      

   \                                 In  segment XDATA_ROM_C, align 1
   \                     `?<Constant "&&ROUTER_LINK<<">`:
   \   000000   2626524F     DB "&&ROUTER_LINK<<"
   \            55544552
   \            5F4C494E
   \            4B3C3C00

   \                                 In  segment XDATA_ROM_C, align 1
   \                     `?<Constant "ROU_LINK">`:
   \   000000   524F555F     DB "ROU_LINK"
   \            4C494E4B
   \            00      

   \                                 In  segment XDATA_ROM_C, align 1
   \                     `?<Constant "rcvd">`:
   \   000000   72637664     DB "rcvd"
   \            00      

   \                                 In  segment XDATA_ROM_C, align 1
   \                     `?<Constant "Hello World">`:
   \   000000   48656C6C     DB "Hello World"
   \            6F20576F
   \            726C6400

   \                                 In  segment XDATA_ROM_C, align 1
   \                     `?<Constant ">>Send ROU &&CLOSELED...">`:
   \   000000   3E3E5365     DB ">>Send ROU &&CLOSELED1 INFO <<"
   \            6E642052
   \            4F552026
   \            26434C4F
   \            53454C45
   \            44312049
   \            4E464F20
   \            3C3C00  

   \                                 In  segment XDATA_ROM_C, align 1
   \                     `?<Constant ">>Router Un LINK Stat...">`:
   \   000000   3E3E526F     DB ">>Router Un LINK State <<"
   \            75746572
   \            20556E20
   \            4C494E4B
   \            20537461
   \            7465203C
   \            3C00    

   \                                 In  segment XDATA_ROM_C, align 1
   \                     `?<Constant ">>Router Un LINK State ">`:
   \   000000   3E3E526F     DB ">>Router Un LINK State "
   \            75746572
   \            20556E20
   \            4C494E4B
   \            20537461
   \            74652000

   \                                 In  segment XDATA_ROM_C, align 1
   \                     `?<Constant "&&CLOSELED1<<">`:
   \   000000   2626434C     DB "&&CLOSELED1<<"
   \            4F53454C
   \            4544313C
   \            3C00    

   \                                 In  segment XDATA_ROM_C, align 1
   \                     `?<Constant "&&CLOSELED2<<">`:
   \   000000   2626434C     DB "&&CLOSELED2<<"
   \            4F53454C
   \            4544323C
   \            3C00    

   \                                 In  segment XDATA_ROM_C, align 1
   \                     `?<Constant "&&OPENLED1<<">`:
   \   000000   26264F50     DB "&&OPENLED1<<"
   \            454E4C45
   \            44313C3C
   \            00      

   \                                 In  segment XDATA_ROM_C, align 1
   \                     `?<Constant "&&OPENLED2<<">`:
   \   000000   26264F50     DB "&&OPENLED2<<"
   \            454E4C45
   \            44323C3C
   \            00      
    770          
    771          /*********************************************************************
    772           */

   Maximum stack usage in bytes:

     Function                       ISTACK PSTACK XSTACK
     --------                       ------ ------ ------
     FSetAddrMode                       3      0      0
     FSetEndPoint                       3      0      0
     FSetShortAddr                      2      0      0
     FuncSetDstAddrInfo                 1      0     23
     SerialApp_CallBack                 0      0     20
       -> osal_memset                   0      0     22
       -> HalUARTRead                   0      0     22
       -> osal_strlen                   0      0     28
       -> osal_memcmp                   0      0     28
       -> osal_strlen                   0      0     28
       -> osal_memcpy                   0      0     28
       -> HalLedSet                     0      0     22
       -> osal_strlen                   0      0     28
       -> osal_memcmp                   0      0     28
       -> osal_strlen                   0      0     28
       -> osal_memcpy                   0      0     28
       -> HalLedSet                     0      0     22
       -> osal_strlen                   0      0     28
       -> osal_memcmp                   0      0     28
       -> osal_strlen                   0      0     28
       -> osal_memcpy                   0      0     28
       -> HalLedSet                     0      0     22
       -> osal_strlen                   0      0     28
       -> osal_memcmp                   0      0     28
       -> osal_strlen                   0      0     28
       -> osal_memcpy                   0      0     28
       -> HalLedSet                     0      0     22
       -> osal_memset                   0      0     22
       -> osal_strlen                   0      0     28
       -> osal_memcpy                   0      0     28
       -> osal_strlen                   0      0     32
       -> AF_DataRequest                0      0     40
       -> osal_strlen                   0      0     22
       -> HalUARTWrite                  0      0     22
       -> osal_strlen                   0      0     22
       -> HalUARTWrite                  0      0     22
     SwitchTestApp_Init                 0      0     38
       -> afRegister                    0      0     76
       -> RegisterForKeys               0      0     76
       -> HalUARTOpen                   0      0     76
       -> HalLcdWriteString             0      0     76
       -> ZDO_RegisterForZDOMsg         0      0     76
       -> ZDO_RegisterForZDOMsg         0      0     76
     SwitchTestApp_MessageMSGCB         0      0     50
       -> osal_strlen                   0      0     24
       -> HalUARTWrite                  0      0     24
       -> osal_memcpy                   0      0     30
       -> osal_memcmp                   0      0     30
       -> FuncSetDstAddrInfo            0      0     28
       -> osal_strlen                   0      0     24
       -> HalUARTWrite                  0      0     24
       -> HalLcdWriteScreen             0      0     24
     SwitchTestApp_ProcessEvent         2      0     44
       -> osal_msg_receive              0      0     70
       -> osal_start_timerEx            0      0     70
       -> osal_strlen                   0      0     70
       -> HalUARTWrite                  0      0     70
       -> osal_msg_deallocate           0      0     70
       -> osal_msg_receive              0      0     70
       -> ZDO_ParseEPListRsp            0      0     70
       -> HalLedSet                     0      0     70
       -> osal_mem_free                 0      0     70
       -> HalLedSet                     0      0     70
       -> HalLedSet                     0      0     70
       -> HalLedSet                     0      0     70
       -> NLME_GetShortAddr             0      0     70
       -> ZDP_EndDeviceBindReq          0      0     88
       -> HalLedSet                     0      0     70
       -> ZDP_MatchDescReq              0      0     86
       -> SwitchTestApp_MessageMSGCB
                                        0      0     70
       -> osal_strlen                   0      0     80
       -> AF_DataRequest                0      0     88
       -> osal_start_timerEx            0      0     70


   Segment part sizes:

     Function/Label                         Bytes
     --------------                         -----
     SwitchTestApp_ClusterList                 2
     SwitchTestApp_SimpleDesc                 12
     SwitchTestApp_epDesc                      6
     SwitchTestApp_TaskID                      1
     SwitchTestApp_NwkState                    1
     SwitchTestApp_TransID                     1
     SwitchTestApp_DstAddr                    12
     SerialApp_RxBuf                         254
     SwitchRouterAddr                         12
     routerLinkState                           1
     CodRecv_AFBuf                            16
     CodSend_AFBuf                            16
     FSetAddrMode                              9
     ?Subroutine0                              8
     ??Subroutine9_0                           8
     FSetEndPoint                             12
     FSetShortAddr                            14
     FuncSetDstAddrInfo                       53
     ?Subroutine1                              5
     SwitchTestApp_Init                      179
     ?Subroutine6                              8
     SwitchTestApp_ProcessEvent              678
     ?Subroutine7                              4
     ??Subroutine10_0                          6
     ?Subroutine4                              4
     ?Subroutine8                              8
     SwitchTestApp_MessageMSGCB              243
     SerialApp_CallBack                      331
     ?Subroutine5                             16
     ?Subroutine3                             13
     ?Subroutine2                              4
     ??Subroutine11_0                         15
     ??FSetAddrMode?relay                      6
     ??FSetEndPoint?relay                      6
     ??FSetShortAddr?relay                     6
     ??FuncSetDstAddrInfo?relay                6
     ??SwitchTestApp_Init?relay                6
     ??SwitchTestApp_ProcessEvent?relay        6
     ??SwitchTestApp_MessageMSGCB?relay        6
     ??SerialApp_CallBack?relay                6
     ?<Constant "SwitchTestApp">              14
     ?<Constant "DEV_ZB_COORD">               13
     ?<Constant "&&ROUTER_LINK<<">            16
     ?<Constant "ROU_LINK">                    9
     ?<Constant "rcvd">                        5
     ?<Constant "Hello World">                12
     ?<Constant ">>Send ROU &&CLOSELED...">   31
     ?<Constant ">>Router Un LINK Stat...">   26
     ?<Constant ">>Router Un LINK State ">    24
     ?<Constant "&&CLOSELED1<<">              14
     ?<Constant "&&CLOSELED2<<">              14
     ?<Constant "&&OPENLED1<<">               13
     ?<Constant "&&OPENLED2<<">               13

 
 1 618 bytes in segment BANKED_CODE
    48 bytes in segment BANK_RELAYS
   218 bytes in segment XDATA_ROM_C
   320 bytes in segment XDATA_Z
 
 1 666 bytes of CODE  memory
   218 bytes of CONST memory
   320 bytes of XDATA memory

Errors: none
Warnings: 4
